
rtos.elf:     file format elf32-littlearm


Disassembly of section .text:

080000dc <memcpy>:
 80000dc:	4684      	mov	ip, r0
 80000de:	ea41 0300 	orr.w	r3, r1, r0
 80000e2:	f013 0303 	ands.w	r3, r3, #3
 80000e6:	d16d      	bne.n	80001c4 <memcpy+0xe8>
 80000e8:	3a40      	subs	r2, #64	@ 0x40
 80000ea:	d341      	bcc.n	8000170 <memcpy+0x94>
 80000ec:	f851 3b04 	ldr.w	r3, [r1], #4
 80000f0:	f840 3b04 	str.w	r3, [r0], #4
 80000f4:	f851 3b04 	ldr.w	r3, [r1], #4
 80000f8:	f840 3b04 	str.w	r3, [r0], #4
 80000fc:	f851 3b04 	ldr.w	r3, [r1], #4
 8000100:	f840 3b04 	str.w	r3, [r0], #4
 8000104:	f851 3b04 	ldr.w	r3, [r1], #4
 8000108:	f840 3b04 	str.w	r3, [r0], #4
 800010c:	f851 3b04 	ldr.w	r3, [r1], #4
 8000110:	f840 3b04 	str.w	r3, [r0], #4
 8000114:	f851 3b04 	ldr.w	r3, [r1], #4
 8000118:	f840 3b04 	str.w	r3, [r0], #4
 800011c:	f851 3b04 	ldr.w	r3, [r1], #4
 8000120:	f840 3b04 	str.w	r3, [r0], #4
 8000124:	f851 3b04 	ldr.w	r3, [r1], #4
 8000128:	f840 3b04 	str.w	r3, [r0], #4
 800012c:	f851 3b04 	ldr.w	r3, [r1], #4
 8000130:	f840 3b04 	str.w	r3, [r0], #4
 8000134:	f851 3b04 	ldr.w	r3, [r1], #4
 8000138:	f840 3b04 	str.w	r3, [r0], #4
 800013c:	f851 3b04 	ldr.w	r3, [r1], #4
 8000140:	f840 3b04 	str.w	r3, [r0], #4
 8000144:	f851 3b04 	ldr.w	r3, [r1], #4
 8000148:	f840 3b04 	str.w	r3, [r0], #4
 800014c:	f851 3b04 	ldr.w	r3, [r1], #4
 8000150:	f840 3b04 	str.w	r3, [r0], #4
 8000154:	f851 3b04 	ldr.w	r3, [r1], #4
 8000158:	f840 3b04 	str.w	r3, [r0], #4
 800015c:	f851 3b04 	ldr.w	r3, [r1], #4
 8000160:	f840 3b04 	str.w	r3, [r0], #4
 8000164:	f851 3b04 	ldr.w	r3, [r1], #4
 8000168:	f840 3b04 	str.w	r3, [r0], #4
 800016c:	3a40      	subs	r2, #64	@ 0x40
 800016e:	d2bd      	bcs.n	80000ec <memcpy+0x10>
 8000170:	3230      	adds	r2, #48	@ 0x30
 8000172:	d311      	bcc.n	8000198 <memcpy+0xbc>
 8000174:	f851 3b04 	ldr.w	r3, [r1], #4
 8000178:	f840 3b04 	str.w	r3, [r0], #4
 800017c:	f851 3b04 	ldr.w	r3, [r1], #4
 8000180:	f840 3b04 	str.w	r3, [r0], #4
 8000184:	f851 3b04 	ldr.w	r3, [r1], #4
 8000188:	f840 3b04 	str.w	r3, [r0], #4
 800018c:	f851 3b04 	ldr.w	r3, [r1], #4
 8000190:	f840 3b04 	str.w	r3, [r0], #4
 8000194:	3a10      	subs	r2, #16
 8000196:	d2ed      	bcs.n	8000174 <memcpy+0x98>
 8000198:	320c      	adds	r2, #12
 800019a:	d305      	bcc.n	80001a8 <memcpy+0xcc>
 800019c:	f851 3b04 	ldr.w	r3, [r1], #4
 80001a0:	f840 3b04 	str.w	r3, [r0], #4
 80001a4:	3a04      	subs	r2, #4
 80001a6:	d2f9      	bcs.n	800019c <memcpy+0xc0>
 80001a8:	3204      	adds	r2, #4
 80001aa:	d008      	beq.n	80001be <memcpy+0xe2>
 80001ac:	07d2      	lsls	r2, r2, #31
 80001ae:	bf1c      	itt	ne
 80001b0:	f811 3b01 	ldrbne.w	r3, [r1], #1
 80001b4:	f800 3b01 	strbne.w	r3, [r0], #1
 80001b8:	d301      	bcc.n	80001be <memcpy+0xe2>
 80001ba:	880b      	ldrh	r3, [r1, #0]
 80001bc:	8003      	strh	r3, [r0, #0]
 80001be:	4660      	mov	r0, ip
 80001c0:	4770      	bx	lr
 80001c2:	bf00      	nop
 80001c4:	2a08      	cmp	r2, #8
 80001c6:	d313      	bcc.n	80001f0 <memcpy+0x114>
 80001c8:	078b      	lsls	r3, r1, #30
 80001ca:	d08d      	beq.n	80000e8 <memcpy+0xc>
 80001cc:	f010 0303 	ands.w	r3, r0, #3
 80001d0:	d08a      	beq.n	80000e8 <memcpy+0xc>
 80001d2:	f1c3 0304 	rsb	r3, r3, #4
 80001d6:	1ad2      	subs	r2, r2, r3
 80001d8:	07db      	lsls	r3, r3, #31
 80001da:	bf1c      	itt	ne
 80001dc:	f811 3b01 	ldrbne.w	r3, [r1], #1
 80001e0:	f800 3b01 	strbne.w	r3, [r0], #1
 80001e4:	d380      	bcc.n	80000e8 <memcpy+0xc>
 80001e6:	f831 3b02 	ldrh.w	r3, [r1], #2
 80001ea:	f820 3b02 	strh.w	r3, [r0], #2
 80001ee:	e77b      	b.n	80000e8 <memcpy+0xc>
 80001f0:	3a04      	subs	r2, #4
 80001f2:	d3d9      	bcc.n	80001a8 <memcpy+0xcc>
 80001f4:	3a01      	subs	r2, #1
 80001f6:	f811 3b01 	ldrb.w	r3, [r1], #1
 80001fa:	f800 3b01 	strb.w	r3, [r0], #1
 80001fe:	d2f9      	bcs.n	80001f4 <memcpy+0x118>
 8000200:	780b      	ldrb	r3, [r1, #0]
 8000202:	7003      	strb	r3, [r0, #0]
 8000204:	784b      	ldrb	r3, [r1, #1]
 8000206:	7043      	strb	r3, [r0, #1]
 8000208:	788b      	ldrb	r3, [r1, #2]
 800020a:	7083      	strb	r3, [r0, #2]
 800020c:	4660      	mov	r0, ip
 800020e:	4770      	bx	lr

08000210 <__WFI>:

static inline void __ISB(void) {
    __asm volatile ("isb 0xF" ::: "memory");
}

static inline void __WFI(void) {
 8000210:	b480      	push	{r7}
 8000212:	af00      	add	r7, sp, #0
    __asm volatile ("wfi");
 8000214:	bf30      	wfi
}
 8000216:	bf00      	nop
 8000218:	46bd      	mov	sp, r7
 800021a:	bc80      	pop	{r7}
 800021c:	4770      	bx	lr
	...

08000220 <Reset_Handler>:
};

/*---------------------------------------------------------------------------*/
/* Reset Handler - Entry Point */
/*---------------------------------------------------------------------------*/
void Reset_Handler(void) {
 8000220:	b580      	push	{r7, lr}
 8000222:	b082      	sub	sp, #8
 8000224:	af00      	add	r7, sp, #0
    uint32_t *src, *dst;

    /* Copy .data section from Flash to RAM */
    src = &_sidata;
 8000226:	4b11      	ldr	r3, [pc, #68]	@ (800026c <Reset_Handler+0x4c>)
 8000228:	607b      	str	r3, [r7, #4]
    dst = &_sdata;
 800022a:	4b11      	ldr	r3, [pc, #68]	@ (8000270 <Reset_Handler+0x50>)
 800022c:	603b      	str	r3, [r7, #0]
    while (dst < &_edata) {
 800022e:	e007      	b.n	8000240 <Reset_Handler+0x20>
        *dst++ = *src++;
 8000230:	687a      	ldr	r2, [r7, #4]
 8000232:	1d13      	adds	r3, r2, #4
 8000234:	607b      	str	r3, [r7, #4]
 8000236:	683b      	ldr	r3, [r7, #0]
 8000238:	1d19      	adds	r1, r3, #4
 800023a:	6039      	str	r1, [r7, #0]
 800023c:	6812      	ldr	r2, [r2, #0]
 800023e:	601a      	str	r2, [r3, #0]
    while (dst < &_edata) {
 8000240:	683b      	ldr	r3, [r7, #0]
 8000242:	4a0c      	ldr	r2, [pc, #48]	@ (8000274 <Reset_Handler+0x54>)
 8000244:	4293      	cmp	r3, r2
 8000246:	d3f3      	bcc.n	8000230 <Reset_Handler+0x10>
    }

    /* Zero fill .bss section */
    dst = &_sbss;
 8000248:	4b0b      	ldr	r3, [pc, #44]	@ (8000278 <Reset_Handler+0x58>)
 800024a:	603b      	str	r3, [r7, #0]
    while (dst < &_ebss) {
 800024c:	e004      	b.n	8000258 <Reset_Handler+0x38>
        *dst++ = 0;
 800024e:	683b      	ldr	r3, [r7, #0]
 8000250:	1d1a      	adds	r2, r3, #4
 8000252:	603a      	str	r2, [r7, #0]
 8000254:	2200      	movs	r2, #0
 8000256:	601a      	str	r2, [r3, #0]
    while (dst < &_ebss) {
 8000258:	683b      	ldr	r3, [r7, #0]
 800025a:	4a08      	ldr	r2, [pc, #32]	@ (800027c <Reset_Handler+0x5c>)
 800025c:	4293      	cmp	r3, r2
 800025e:	d3f6      	bcc.n	800024e <Reset_Handler+0x2e>
    /* Enable FPU (Cortex-M4 with FPU) */
    /* SCB->CPACR |= ((3UL << 10*2) | (3UL << 11*2)); */
    /* Note: Not using FPU in this RTOS for simplicity */

    /* Call main() */
    main();
 8000260:	f001 fe26 	bl	8001eb0 <main>

    /* Should never reach here */
    while (1) {
        __WFI();
 8000264:	f7ff ffd4 	bl	8000210 <__WFI>
 8000268:	e7fc      	b.n	8000264 <Reset_Handler+0x44>
 800026a:	bf00      	nop
 800026c:	08002384 	.word	0x08002384
 8000270:	20000000 	.word	0x20000000
 8000274:	20000000 	.word	0x20000000
 8000278:	20000000 	.word	0x20000000
 800027c:	20000fd0 	.word	0x20000fd0

08000280 <Default_Handler>:
}

/*---------------------------------------------------------------------------*/
/* Default Handler */
/*---------------------------------------------------------------------------*/
void Default_Handler(void) {
 8000280:	b480      	push	{r7}
 8000282:	af00      	add	r7, sp, #0
    /* Infinite loop for unhandled interrupts */
    while (1) {
        __asm volatile ("nop");
 8000284:	bf00      	nop
 8000286:	e7fd      	b.n	8000284 <Default_Handler+0x4>

08000288 <HardFault_Handler>:
}

/*---------------------------------------------------------------------------*/
/* Hard Fault Handler */
/*---------------------------------------------------------------------------*/
void HardFault_Handler(void) {
 8000288:	b480      	push	{r7}
 800028a:	b085      	sub	sp, #20
 800028c:	af00      	add	r7, sp, #0
    /* Capture fault information for debugging */
    volatile uint32_t cfsr = SCB->CFSR;
 800028e:	4b09      	ldr	r3, [pc, #36]	@ (80002b4 <HardFault_Handler+0x2c>)
 8000290:	6a9b      	ldr	r3, [r3, #40]	@ 0x28
 8000292:	60fb      	str	r3, [r7, #12]
    volatile uint32_t hfsr = SCB->HFSR;
 8000294:	4b07      	ldr	r3, [pc, #28]	@ (80002b4 <HardFault_Handler+0x2c>)
 8000296:	6adb      	ldr	r3, [r3, #44]	@ 0x2c
 8000298:	60bb      	str	r3, [r7, #8]
    volatile uint32_t mmfar = SCB->MMFAR;
 800029a:	4b06      	ldr	r3, [pc, #24]	@ (80002b4 <HardFault_Handler+0x2c>)
 800029c:	6b5b      	ldr	r3, [r3, #52]	@ 0x34
 800029e:	607b      	str	r3, [r7, #4]
    volatile uint32_t bfar = SCB->BFAR;
 80002a0:	4b04      	ldr	r3, [pc, #16]	@ (80002b4 <HardFault_Handler+0x2c>)
 80002a2:	6b9b      	ldr	r3, [r3, #56]	@ 0x38
 80002a4:	603b      	str	r3, [r7, #0]

    /* Prevent compiler warnings */
    (void)cfsr;
 80002a6:	68fb      	ldr	r3, [r7, #12]
    (void)hfsr;
 80002a8:	68bb      	ldr	r3, [r7, #8]
    (void)mmfar;
 80002aa:	687b      	ldr	r3, [r7, #4]
    (void)bfar;
 80002ac:	683b      	ldr	r3, [r7, #0]

    /* Infinite loop - attach debugger to inspect */
    while (1) {
        __asm volatile ("nop");
 80002ae:	bf00      	nop
 80002b0:	e7fd      	b.n	80002ae <HardFault_Handler+0x26>
 80002b2:	bf00      	nop
 80002b4:	e000ed00 	.word	0xe000ed00

080002b8 <__disable_irq>:
static inline void __disable_irq(void) {
 80002b8:	b480      	push	{r7}
 80002ba:	af00      	add	r7, sp, #0
    __asm volatile ("cpsid i" ::: "memory");
 80002bc:	b672      	cpsid	i
}
 80002be:	bf00      	nop
 80002c0:	46bd      	mov	sp, r7
 80002c2:	bc80      	pop	{r7}
 80002c4:	4770      	bx	lr

080002c6 <__enable_irq>:
static inline void __enable_irq(void) {
 80002c6:	b480      	push	{r7}
 80002c8:	af00      	add	r7, sp, #0
    __asm volatile ("cpsie i" ::: "memory");
 80002ca:	b662      	cpsie	i
}
 80002cc:	bf00      	nop
 80002ce:	46bd      	mov	sp, r7
 80002d0:	bc80      	pop	{r7}
 80002d2:	4770      	bx	lr

080002d4 <__DSB>:
static inline void __DSB(void) {
 80002d4:	b480      	push	{r7}
 80002d6:	af00      	add	r7, sp, #0
    __asm volatile ("dsb 0xF" ::: "memory");
 80002d8:	f3bf 8f4f 	dsb	sy
}
 80002dc:	bf00      	nop
 80002de:	46bd      	mov	sp, r7
 80002e0:	bc80      	pop	{r7}
 80002e2:	4770      	bx	lr

080002e4 <__ISB>:
static inline void __ISB(void) {
 80002e4:	b480      	push	{r7}
 80002e6:	af00      	add	r7, sp, #0
    __asm volatile ("isb 0xF" ::: "memory");
 80002e8:	f3bf 8f6f 	isb	sy
}
 80002ec:	bf00      	nop
 80002ee:	46bd      	mov	sp, r7
 80002f0:	bc80      	pop	{r7}
 80002f2:	4770      	bx	lr

080002f4 <__WFI>:
static inline void __WFI(void) {
 80002f4:	b480      	push	{r7}
 80002f6:	af00      	add	r7, sp, #0
    __asm volatile ("wfi");
 80002f8:	bf30      	wfi
}
 80002fa:	bf00      	nop
 80002fc:	46bd      	mov	sp, r7
 80002fe:	bc80      	pop	{r7}
 8000300:	4770      	bx	lr

08000302 <__get_PRIMASK>:

static inline uint32_t __get_PRIMASK(void) {
 8000302:	b480      	push	{r7}
 8000304:	b083      	sub	sp, #12
 8000306:	af00      	add	r7, sp, #0
    uint32_t result;
    __asm volatile ("MRS %0, primask" : "=r" (result));
 8000308:	f3ef 8310 	mrs	r3, PRIMASK
 800030c:	607b      	str	r3, [r7, #4]
    return result;
 800030e:	687b      	ldr	r3, [r7, #4]
}
 8000310:	4618      	mov	r0, r3
 8000312:	370c      	adds	r7, #12
 8000314:	46bd      	mov	sp, r7
 8000316:	bc80      	pop	{r7}
 8000318:	4770      	bx	lr

0800031a <__set_PRIMASK>:

static inline void __set_PRIMASK(uint32_t primask) {
 800031a:	b480      	push	{r7}
 800031c:	b083      	sub	sp, #12
 800031e:	af00      	add	r7, sp, #0
 8000320:	6078      	str	r0, [r7, #4]
    __asm volatile ("MSR primask, %0" :: "r" (primask) : "memory");
 8000322:	687b      	ldr	r3, [r7, #4]
 8000324:	f383 8810 	msr	PRIMASK, r3
}
 8000328:	bf00      	nop
 800032a:	370c      	adds	r7, #12
 800032c:	46bd      	mov	sp, r7
 800032e:	bc80      	pop	{r7}
 8000330:	4770      	bx	lr
	...

08000334 <rtos_port_init>:
#define SYSTICK_PRIORITY    0xFF    /* Same low priority */

/*---------------------------------------------------------------------------*/
/* Port Initialization */
/*---------------------------------------------------------------------------*/
void rtos_port_init(void) {
 8000334:	b480      	push	{r7}
 8000336:	af00      	add	r7, sp, #0
    /* Set PendSV to lowest priority */
    SCB->SHP[SCB_SHP_PENDSV_IDX] = PENDSV_PRIORITY;
 8000338:	4b0a      	ldr	r3, [pc, #40]	@ (8000364 <rtos_port_init+0x30>)
 800033a:	22ff      	movs	r2, #255	@ 0xff
 800033c:	f883 2022 	strb.w	r2, [r3, #34]	@ 0x22

    /* Set SysTick to lowest priority */
    SCB->SHP[SCB_SHP_SYSTICK_IDX] = SYSTICK_PRIORITY;
 8000340:	4b08      	ldr	r3, [pc, #32]	@ (8000364 <rtos_port_init+0x30>)
 8000342:	22ff      	movs	r2, #255	@ 0xff
 8000344:	f883 2023 	strb.w	r2, [r3, #35]	@ 0x23

    /* Configure SysTick for 1kHz tick rate */
    SysTick->LOAD = RTOS_SYSTICK_RELOAD;
 8000348:	4b07      	ldr	r3, [pc, #28]	@ (8000368 <rtos_port_init+0x34>)
 800034a:	f643 627f 	movw	r2, #15999	@ 0x3e7f
 800034e:	605a      	str	r2, [r3, #4]
    SysTick->VAL = 0;
 8000350:	4b05      	ldr	r3, [pc, #20]	@ (8000368 <rtos_port_init+0x34>)
 8000352:	2200      	movs	r2, #0
 8000354:	609a      	str	r2, [r3, #8]
    SysTick->CTRL = SYSTICK_CTRL_CLKSOURCE_Msk |    /* Use processor clock */
 8000356:	4b04      	ldr	r3, [pc, #16]	@ (8000368 <rtos_port_init+0x34>)
 8000358:	2207      	movs	r2, #7
 800035a:	601a      	str	r2, [r3, #0]
                    SYSTICK_CTRL_TICKINT_Msk |       /* Enable interrupt */
                    SYSTICK_CTRL_ENABLE_Msk;         /* Enable SysTick */
}
 800035c:	bf00      	nop
 800035e:	46bd      	mov	sp, r7
 8000360:	bc80      	pop	{r7}
 8000362:	4770      	bx	lr
 8000364:	e000ed00 	.word	0xe000ed00
 8000368:	e000e010 	.word	0xe000e010

0800036c <rtos_port_init_stack>:

/*---------------------------------------------------------------------------*/
/* Stack Initialization */
/*---------------------------------------------------------------------------*/
uint32_t *rtos_port_init_stack(uint32_t *stack_top, void (*task_fn)(void *), void *arg) {
 800036c:	b480      	push	{r7}
 800036e:	b087      	sub	sp, #28
 8000370:	af00      	add	r7, sp, #0
 8000372:	60f8      	str	r0, [r7, #12]
 8000374:	60b9      	str	r1, [r7, #8]
 8000376:	607a      	str	r2, [r7, #4]
    uint32_t *sp = stack_top;
 8000378:	68fb      	ldr	r3, [r7, #12]
 800037a:	617b      	str	r3, [r7, #20]

    /* Stack grows downward on ARM */

    /* Hardware-saved frame (exception entry will pop these) */
    *(--sp) = XPSR_INIT_VALUE;          /* xPSR - Thumb bit set */
 800037c:	697b      	ldr	r3, [r7, #20]
 800037e:	3b04      	subs	r3, #4
 8000380:	617b      	str	r3, [r7, #20]
 8000382:	697b      	ldr	r3, [r7, #20]
 8000384:	f04f 7280 	mov.w	r2, #16777216	@ 0x1000000
 8000388:	601a      	str	r2, [r3, #0]
    *(--sp) = (uint32_t)task_fn;        /* PC - Task entry point */
 800038a:	697b      	ldr	r3, [r7, #20]
 800038c:	3b04      	subs	r3, #4
 800038e:	617b      	str	r3, [r7, #20]
 8000390:	68ba      	ldr	r2, [r7, #8]
 8000392:	697b      	ldr	r3, [r7, #20]
 8000394:	601a      	str	r2, [r3, #0]
    *(--sp) = (uint32_t)rtos_task_exit; /* LR - Return address (task exit handler) */
 8000396:	697b      	ldr	r3, [r7, #20]
 8000398:	3b04      	subs	r3, #4
 800039a:	617b      	str	r3, [r7, #20]
 800039c:	4a31      	ldr	r2, [pc, #196]	@ (8000464 <rtos_port_init_stack+0xf8>)
 800039e:	697b      	ldr	r3, [r7, #20]
 80003a0:	601a      	str	r2, [r3, #0]
    *(--sp) = 0x12121212;               /* R12 */
 80003a2:	697b      	ldr	r3, [r7, #20]
 80003a4:	3b04      	subs	r3, #4
 80003a6:	617b      	str	r3, [r7, #20]
 80003a8:	697b      	ldr	r3, [r7, #20]
 80003aa:	f04f 3212 	mov.w	r2, #303174162	@ 0x12121212
 80003ae:	601a      	str	r2, [r3, #0]
    *(--sp) = 0x03030303;               /* R3 */
 80003b0:	697b      	ldr	r3, [r7, #20]
 80003b2:	3b04      	subs	r3, #4
 80003b4:	617b      	str	r3, [r7, #20]
 80003b6:	697b      	ldr	r3, [r7, #20]
 80003b8:	f04f 3203 	mov.w	r2, #50529027	@ 0x3030303
 80003bc:	601a      	str	r2, [r3, #0]
    *(--sp) = 0x02020202;               /* R2 */
 80003be:	697b      	ldr	r3, [r7, #20]
 80003c0:	3b04      	subs	r3, #4
 80003c2:	617b      	str	r3, [r7, #20]
 80003c4:	697b      	ldr	r3, [r7, #20]
 80003c6:	f04f 3202 	mov.w	r2, #33686018	@ 0x2020202
 80003ca:	601a      	str	r2, [r3, #0]
    *(--sp) = 0x01010101;               /* R1 */
 80003cc:	697b      	ldr	r3, [r7, #20]
 80003ce:	3b04      	subs	r3, #4
 80003d0:	617b      	str	r3, [r7, #20]
 80003d2:	697b      	ldr	r3, [r7, #20]
 80003d4:	f04f 3201 	mov.w	r2, #16843009	@ 0x1010101
 80003d8:	601a      	str	r2, [r3, #0]
    *(--sp) = (uint32_t)arg;            /* R0 - Task argument */
 80003da:	697b      	ldr	r3, [r7, #20]
 80003dc:	3b04      	subs	r3, #4
 80003de:	617b      	str	r3, [r7, #20]
 80003e0:	687a      	ldr	r2, [r7, #4]
 80003e2:	697b      	ldr	r3, [r7, #20]
 80003e4:	601a      	str	r2, [r3, #0]

    /* Software-saved frame (PendSV will pop these on first context switch) */
    *(--sp) = 0x11111111;               /* R11 */
 80003e6:	697b      	ldr	r3, [r7, #20]
 80003e8:	3b04      	subs	r3, #4
 80003ea:	617b      	str	r3, [r7, #20]
 80003ec:	697b      	ldr	r3, [r7, #20]
 80003ee:	f04f 3211 	mov.w	r2, #286331153	@ 0x11111111
 80003f2:	601a      	str	r2, [r3, #0]
    *(--sp) = 0x10101010;               /* R10 */
 80003f4:	697b      	ldr	r3, [r7, #20]
 80003f6:	3b04      	subs	r3, #4
 80003f8:	617b      	str	r3, [r7, #20]
 80003fa:	697b      	ldr	r3, [r7, #20]
 80003fc:	f04f 3210 	mov.w	r2, #269488144	@ 0x10101010
 8000400:	601a      	str	r2, [r3, #0]
    *(--sp) = 0x09090909;               /* R9 */
 8000402:	697b      	ldr	r3, [r7, #20]
 8000404:	3b04      	subs	r3, #4
 8000406:	617b      	str	r3, [r7, #20]
 8000408:	697b      	ldr	r3, [r7, #20]
 800040a:	f04f 3209 	mov.w	r2, #151587081	@ 0x9090909
 800040e:	601a      	str	r2, [r3, #0]
    *(--sp) = 0x08080808;               /* R8 */
 8000410:	697b      	ldr	r3, [r7, #20]
 8000412:	3b04      	subs	r3, #4
 8000414:	617b      	str	r3, [r7, #20]
 8000416:	697b      	ldr	r3, [r7, #20]
 8000418:	f04f 3208 	mov.w	r2, #134744072	@ 0x8080808
 800041c:	601a      	str	r2, [r3, #0]
    *(--sp) = 0x07070707;               /* R7 */
 800041e:	697b      	ldr	r3, [r7, #20]
 8000420:	3b04      	subs	r3, #4
 8000422:	617b      	str	r3, [r7, #20]
 8000424:	697b      	ldr	r3, [r7, #20]
 8000426:	f04f 3207 	mov.w	r2, #117901063	@ 0x7070707
 800042a:	601a      	str	r2, [r3, #0]
    *(--sp) = 0x06060606;               /* R6 */
 800042c:	697b      	ldr	r3, [r7, #20]
 800042e:	3b04      	subs	r3, #4
 8000430:	617b      	str	r3, [r7, #20]
 8000432:	697b      	ldr	r3, [r7, #20]
 8000434:	f04f 3206 	mov.w	r2, #101058054	@ 0x6060606
 8000438:	601a      	str	r2, [r3, #0]
    *(--sp) = 0x05050505;               /* R5 */
 800043a:	697b      	ldr	r3, [r7, #20]
 800043c:	3b04      	subs	r3, #4
 800043e:	617b      	str	r3, [r7, #20]
 8000440:	697b      	ldr	r3, [r7, #20]
 8000442:	f04f 3205 	mov.w	r2, #84215045	@ 0x5050505
 8000446:	601a      	str	r2, [r3, #0]
    *(--sp) = 0x04040404;               /* R4 */
 8000448:	697b      	ldr	r3, [r7, #20]
 800044a:	3b04      	subs	r3, #4
 800044c:	617b      	str	r3, [r7, #20]
 800044e:	697b      	ldr	r3, [r7, #20]
 8000450:	f04f 3204 	mov.w	r2, #67372036	@ 0x4040404
 8000454:	601a      	str	r2, [r3, #0]

    return sp;
 8000456:	697b      	ldr	r3, [r7, #20]
}
 8000458:	4618      	mov	r0, r3
 800045a:	371c      	adds	r7, #28
 800045c:	46bd      	mov	sp, r7
 800045e:	bc80      	pop	{r7}
 8000460:	4770      	bx	lr
 8000462:	bf00      	nop
 8000464:	08000469 	.word	0x08000469

08000468 <rtos_task_exit>:

/*---------------------------------------------------------------------------*/
/* Task Exit Handler (should never be called) */
/*---------------------------------------------------------------------------*/
void rtos_task_exit(void) {
 8000468:	b580      	push	{r7, lr}
 800046a:	af00      	add	r7, sp, #0
    /* Task returned from its function - this should not happen */
    /* Suspend the task */
    __disable_irq();
 800046c:	f7ff ff24 	bl	80002b8 <__disable_irq>
    rtos_task_suspend(NULL);
 8000470:	2000      	movs	r0, #0
 8000472:	f000 fc3d 	bl	8000cf0 <rtos_task_suspend>
    __enable_irq();
 8000476:	f7ff ff26 	bl	80002c6 <__enable_irq>

    /* If we get here, just spin */
    while (1) {
        __WFI();
 800047a:	f7ff ff3b 	bl	80002f4 <__WFI>
 800047e:	e7fc      	b.n	800047a <rtos_task_exit+0x12>

08000480 <rtos_trigger_context_switch>:
}

/*---------------------------------------------------------------------------*/
/* Trigger Context Switch */
/*---------------------------------------------------------------------------*/
void rtos_trigger_context_switch(void) {
 8000480:	b580      	push	{r7, lr}
 8000482:	af00      	add	r7, sp, #0
    /* Set PendSV pending bit to trigger context switch */
    SCB->ICSR |= SCB_ICSR_PENDSVSET_Msk;
 8000484:	4b05      	ldr	r3, [pc, #20]	@ (800049c <rtos_trigger_context_switch+0x1c>)
 8000486:	685b      	ldr	r3, [r3, #4]
 8000488:	4a04      	ldr	r2, [pc, #16]	@ (800049c <rtos_trigger_context_switch+0x1c>)
 800048a:	f043 5380 	orr.w	r3, r3, #268435456	@ 0x10000000
 800048e:	6053      	str	r3, [r2, #4]
    __DSB();
 8000490:	f7ff ff20 	bl	80002d4 <__DSB>
    __ISB();
 8000494:	f7ff ff26 	bl	80002e4 <__ISB>
}
 8000498:	bf00      	nop
 800049a:	bd80      	pop	{r7, pc}
 800049c:	e000ed00 	.word	0xe000ed00

080004a0 <rtos_port_start_first_task>:

/*---------------------------------------------------------------------------*/
/* Start First Task */
/*---------------------------------------------------------------------------*/
void rtos_port_start_first_task(void) {
 80004a0:	b480      	push	{r7}
 80004a2:	b083      	sub	sp, #12
 80004a4:	af00      	add	r7, sp, #0
    /* Get the first task's stack pointer */
    uint32_t *sp = g_kernel.current_task->stack_ptr;
 80004a6:	4b0d      	ldr	r3, [pc, #52]	@ (80004dc <rtos_port_start_first_task+0x3c>)
 80004a8:	6a5b      	ldr	r3, [r3, #36]	@ 0x24
 80004aa:	681b      	ldr	r3, [r3, #0]
 80004ac:	607b      	str	r3, [r7, #4]

    __asm volatile (
 80004ae:	687b      	ldr	r3, [r7, #4]
 80004b0:	f383 8809 	msr	PSP, r3
 80004b4:	f04f 0002 	mov.w	r0, #2
 80004b8:	f380 8814 	msr	CONTROL, r0
 80004bc:	f3bf 8f6f 	isb	sy
 80004c0:	e8b3 0ff0 	ldmia.w	r3!, {r4, r5, r6, r7, r8, r9, sl, fp}
 80004c4:	f383 8809 	msr	PSP, r3
 80004c8:	b662      	cpsie	i
 80004ca:	e8bd 500f 	ldmia.w	sp!, {r0, r1, r2, r3, ip, lr}
 80004ce:	bc01      	pop	{r0}
 80004d0:	bc02      	pop	{r1}
 80004d2:	f381 8800 	msr	CPSR_f, r1
 80004d6:	4700      	bx	r0
        : "r" (sp)
        : "r0", "r1", "memory"
    );

    /* Should never reach here */
    while (1);
 80004d8:	bf00      	nop
 80004da:	e7fd      	b.n	80004d8 <rtos_port_start_first_task+0x38>
 80004dc:	20000000 	.word	0x20000000

080004e0 <PendSV_Handler>:
/*---------------------------------------------------------------------------*/
/* PendSV Handler - Context Switch */
/*---------------------------------------------------------------------------*/
__attribute__((naked))
void PendSV_Handler(void) {
    __asm volatile (
 80004e0:	b672      	cpsid	i
 80004e2:	f3ef 8009 	mrs	r0, PSP
 80004e6:	e920 0ff0 	stmdb	r0!, {r4, r5, r6, r7, r8, r9, sl, fp}
 80004ea:	4909      	ldr	r1, [pc, #36]	@ (8000510 <PendSV_Handler+0x30>)
 80004ec:	6a4a      	ldr	r2, [r1, #36]	@ 0x24
 80004ee:	6010      	str	r0, [r2, #0]
 80004f0:	b502      	push	{r1, lr}
 80004f2:	f000 fa5d 	bl	80009b0 <rtos_schedule>
 80004f6:	e8bd 4002 	ldmia.w	sp!, {r1, lr}
 80004fa:	6a4a      	ldr	r2, [r1, #36]	@ 0x24
 80004fc:	6810      	ldr	r0, [r2, #0]
 80004fe:	e8b0 0ff0 	ldmia.w	r0!, {r4, r5, r6, r7, r8, r9, sl, fp}
 8000502:	f380 8809 	msr	PSP, r0
 8000506:	b662      	cpsie	i
 8000508:	f06f 0e02 	mvn.w	lr, #2
 800050c:	4770      	bx	lr

        :
        : [curr_off] "I" (offsetof(rtos_kernel_t, current_task))
        : "memory"
    );
}
 800050e:	bf00      	nop
 8000510:	20000000 	.word	0x20000000

08000514 <SysTick_Handler>:

/*---------------------------------------------------------------------------*/
/* SysTick Handler - System Tick */
/*---------------------------------------------------------------------------*/
void SysTick_Handler(void) {
 8000514:	b580      	push	{r7, lr}
 8000516:	b082      	sub	sp, #8
 8000518:	af00      	add	r7, sp, #0
    uint32_t state = rtos_enter_critical();
 800051a:	f000 f827 	bl	800056c <rtos_enter_critical>
 800051e:	6078      	str	r0, [r7, #4]

    /* Increment tick counter */
    g_kernel.tick_count++;
 8000520:	4b11      	ldr	r3, [pc, #68]	@ (8000568 <SysTick_Handler+0x54>)
 8000522:	6adb      	ldr	r3, [r3, #44]	@ 0x2c
 8000524:	3301      	adds	r3, #1
 8000526:	4a10      	ldr	r2, [pc, #64]	@ (8000568 <SysTick_Handler+0x54>)
 8000528:	62d3      	str	r3, [r2, #44]	@ 0x2c

    /* Process timers */
    rtos_timer_tick();
 800052a:	f001 f88f 	bl	800164c <rtos_timer_tick>

    /* Wake up delayed tasks */
    rtos_check_delayed_tasks();
 800052e:	f000 fa17 	bl	8000960 <rtos_check_delayed_tasks>

    /* Check if we need to switch tasks */
    if (g_kernel.scheduler_running && !g_kernel.scheduler_locked) {
 8000532:	4b0d      	ldr	r3, [pc, #52]	@ (8000568 <SysTick_Handler+0x54>)
 8000534:	f893 3030 	ldrb.w	r3, [r3, #48]	@ 0x30
 8000538:	2b00      	cmp	r3, #0
 800053a:	d00e      	beq.n	800055a <SysTick_Handler+0x46>
 800053c:	4b0a      	ldr	r3, [pc, #40]	@ (8000568 <SysTick_Handler+0x54>)
 800053e:	f893 3031 	ldrb.w	r3, [r3, #49]	@ 0x31
 8000542:	2b00      	cmp	r3, #0
 8000544:	d109      	bne.n	800055a <SysTick_Handler+0x46>
        /* Get highest priority ready task */
        rtos_tcb_t *next = rtos_get_highest_priority_task();
 8000546:	f000 f989 	bl	800085c <rtos_get_highest_priority_task>
 800054a:	6038      	str	r0, [r7, #0]

        if (next != g_kernel.current_task) {
 800054c:	4b06      	ldr	r3, [pc, #24]	@ (8000568 <SysTick_Handler+0x54>)
 800054e:	6a5b      	ldr	r3, [r3, #36]	@ 0x24
 8000550:	683a      	ldr	r2, [r7, #0]
 8000552:	429a      	cmp	r2, r3
 8000554:	d001      	beq.n	800055a <SysTick_Handler+0x46>
            /* Trigger context switch */
            rtos_trigger_context_switch();
 8000556:	f7ff ff93 	bl	8000480 <rtos_trigger_context_switch>
        }
    }

    rtos_exit_critical(state);
 800055a:	6878      	ldr	r0, [r7, #4]
 800055c:	f000 f813 	bl	8000586 <rtos_exit_critical>
}
 8000560:	bf00      	nop
 8000562:	3708      	adds	r7, #8
 8000564:	46bd      	mov	sp, r7
 8000566:	bd80      	pop	{r7, pc}
 8000568:	20000000 	.word	0x20000000

0800056c <rtos_enter_critical>:

/*---------------------------------------------------------------------------*/
/* Critical Section Implementation */
/*---------------------------------------------------------------------------*/
uint32_t rtos_enter_critical(void) {
 800056c:	b580      	push	{r7, lr}
 800056e:	b082      	sub	sp, #8
 8000570:	af00      	add	r7, sp, #0
    uint32_t primask = __get_PRIMASK();
 8000572:	f7ff fec6 	bl	8000302 <__get_PRIMASK>
 8000576:	6078      	str	r0, [r7, #4]
    __disable_irq();
 8000578:	f7ff fe9e 	bl	80002b8 <__disable_irq>
    return primask;
 800057c:	687b      	ldr	r3, [r7, #4]
}
 800057e:	4618      	mov	r0, r3
 8000580:	3708      	adds	r7, #8
 8000582:	46bd      	mov	sp, r7
 8000584:	bd80      	pop	{r7, pc}

08000586 <rtos_exit_critical>:

void rtos_exit_critical(uint32_t state) {
 8000586:	b580      	push	{r7, lr}
 8000588:	b082      	sub	sp, #8
 800058a:	af00      	add	r7, sp, #0
 800058c:	6078      	str	r0, [r7, #4]
    __set_PRIMASK(state);
 800058e:	6878      	ldr	r0, [r7, #4]
 8000590:	f7ff fec3 	bl	800031a <__set_PRIMASK>
}
 8000594:	bf00      	nop
 8000596:	3708      	adds	r7, #8
 8000598:	46bd      	mov	sp, r7
 800059a:	bd80      	pop	{r7, pc}

0800059c <__WFI>:
static inline void __WFI(void) {
 800059c:	b480      	push	{r7}
 800059e:	af00      	add	r7, sp, #0
    __asm volatile ("wfi");
 80005a0:	bf30      	wfi
}
 80005a2:	bf00      	nop
 80005a4:	46bd      	mov	sp, r7
 80005a6:	bc80      	pop	{r7}
 80005a8:	4770      	bx	lr

080005aa <__CLZ>:
    __asm volatile ("MSR control, %0" :: "r" (control) : "memory");
    __ISB();
}

/* Count Leading Zeros - used for O(1) priority lookup */
static inline uint32_t __CLZ(uint32_t value) {
 80005aa:	b480      	push	{r7}
 80005ac:	b085      	sub	sp, #20
 80005ae:	af00      	add	r7, sp, #0
 80005b0:	6078      	str	r0, [r7, #4]
    uint32_t result;
    __asm volatile ("clz %0, %1" : "=r" (result) : "r" (value));
 80005b2:	687b      	ldr	r3, [r7, #4]
 80005b4:	fab3 f383 	clz	r3, r3
 80005b8:	60fb      	str	r3, [r7, #12]
    return result;
 80005ba:	68fb      	ldr	r3, [r7, #12]
}
 80005bc:	4618      	mov	r0, r3
 80005be:	3714      	adds	r7, #20
 80005c0:	46bd      	mov	sp, r7
 80005c2:	bc80      	pop	{r7}
 80005c4:	4770      	bx	lr

080005c6 <rtos_list_init>:

/*---------------------------------------------------------------------------*/
/* List Operations */
/*---------------------------------------------------------------------------*/

void rtos_list_init(rtos_list_t *list) {
 80005c6:	b480      	push	{r7}
 80005c8:	b083      	sub	sp, #12
 80005ca:	af00      	add	r7, sp, #0
 80005cc:	6078      	str	r0, [r7, #4]
    list->head = NULL;
 80005ce:	687b      	ldr	r3, [r7, #4]
 80005d0:	2200      	movs	r2, #0
 80005d2:	601a      	str	r2, [r3, #0]
    list->tail = NULL;
 80005d4:	687b      	ldr	r3, [r7, #4]
 80005d6:	2200      	movs	r2, #0
 80005d8:	605a      	str	r2, [r3, #4]
}
 80005da:	bf00      	nop
 80005dc:	370c      	adds	r7, #12
 80005de:	46bd      	mov	sp, r7
 80005e0:	bc80      	pop	{r7}
 80005e2:	4770      	bx	lr

080005e4 <rtos_list_is_empty>:

uint8_t rtos_list_is_empty(const rtos_list_t *list) {
 80005e4:	b480      	push	{r7}
 80005e6:	b083      	sub	sp, #12
 80005e8:	af00      	add	r7, sp, #0
 80005ea:	6078      	str	r0, [r7, #4]
    return (list->head == NULL) ? 1 : 0;
 80005ec:	687b      	ldr	r3, [r7, #4]
 80005ee:	681b      	ldr	r3, [r3, #0]
 80005f0:	2b00      	cmp	r3, #0
 80005f2:	bf0c      	ite	eq
 80005f4:	2301      	moveq	r3, #1
 80005f6:	2300      	movne	r3, #0
 80005f8:	b2db      	uxtb	r3, r3
}
 80005fa:	4618      	mov	r0, r3
 80005fc:	370c      	adds	r7, #12
 80005fe:	46bd      	mov	sp, r7
 8000600:	bc80      	pop	{r7}
 8000602:	4770      	bx	lr

08000604 <rtos_list_add_tail>:

void rtos_list_add_tail(rtos_list_t *list, rtos_tcb_t *tcb) {
 8000604:	b480      	push	{r7}
 8000606:	b083      	sub	sp, #12
 8000608:	af00      	add	r7, sp, #0
 800060a:	6078      	str	r0, [r7, #4]
 800060c:	6039      	str	r1, [r7, #0]
    tcb->next = NULL;
 800060e:	683b      	ldr	r3, [r7, #0]
 8000610:	2200      	movs	r2, #0
 8000612:	615a      	str	r2, [r3, #20]
    tcb->prev = list->tail;
 8000614:	687b      	ldr	r3, [r7, #4]
 8000616:	685a      	ldr	r2, [r3, #4]
 8000618:	683b      	ldr	r3, [r7, #0]
 800061a:	619a      	str	r2, [r3, #24]

    if (list->tail != NULL) {
 800061c:	687b      	ldr	r3, [r7, #4]
 800061e:	685b      	ldr	r3, [r3, #4]
 8000620:	2b00      	cmp	r3, #0
 8000622:	d004      	beq.n	800062e <rtos_list_add_tail+0x2a>
        list->tail->next = tcb;
 8000624:	687b      	ldr	r3, [r7, #4]
 8000626:	685b      	ldr	r3, [r3, #4]
 8000628:	683a      	ldr	r2, [r7, #0]
 800062a:	615a      	str	r2, [r3, #20]
 800062c:	e002      	b.n	8000634 <rtos_list_add_tail+0x30>
    } else {
        list->head = tcb;
 800062e:	687b      	ldr	r3, [r7, #4]
 8000630:	683a      	ldr	r2, [r7, #0]
 8000632:	601a      	str	r2, [r3, #0]
    }
    list->tail = tcb;
 8000634:	687b      	ldr	r3, [r7, #4]
 8000636:	683a      	ldr	r2, [r7, #0]
 8000638:	605a      	str	r2, [r3, #4]
}
 800063a:	bf00      	nop
 800063c:	370c      	adds	r7, #12
 800063e:	46bd      	mov	sp, r7
 8000640:	bc80      	pop	{r7}
 8000642:	4770      	bx	lr

08000644 <rtos_list_add_head>:

void rtos_list_add_head(rtos_list_t *list, rtos_tcb_t *tcb) {
 8000644:	b480      	push	{r7}
 8000646:	b083      	sub	sp, #12
 8000648:	af00      	add	r7, sp, #0
 800064a:	6078      	str	r0, [r7, #4]
 800064c:	6039      	str	r1, [r7, #0]
    tcb->prev = NULL;
 800064e:	683b      	ldr	r3, [r7, #0]
 8000650:	2200      	movs	r2, #0
 8000652:	619a      	str	r2, [r3, #24]
    tcb->next = list->head;
 8000654:	687b      	ldr	r3, [r7, #4]
 8000656:	681a      	ldr	r2, [r3, #0]
 8000658:	683b      	ldr	r3, [r7, #0]
 800065a:	615a      	str	r2, [r3, #20]

    if (list->head != NULL) {
 800065c:	687b      	ldr	r3, [r7, #4]
 800065e:	681b      	ldr	r3, [r3, #0]
 8000660:	2b00      	cmp	r3, #0
 8000662:	d004      	beq.n	800066e <rtos_list_add_head+0x2a>
        list->head->prev = tcb;
 8000664:	687b      	ldr	r3, [r7, #4]
 8000666:	681b      	ldr	r3, [r3, #0]
 8000668:	683a      	ldr	r2, [r7, #0]
 800066a:	619a      	str	r2, [r3, #24]
 800066c:	e002      	b.n	8000674 <rtos_list_add_head+0x30>
    } else {
        list->tail = tcb;
 800066e:	687b      	ldr	r3, [r7, #4]
 8000670:	683a      	ldr	r2, [r7, #0]
 8000672:	605a      	str	r2, [r3, #4]
    }
    list->head = tcb;
 8000674:	687b      	ldr	r3, [r7, #4]
 8000676:	683a      	ldr	r2, [r7, #0]
 8000678:	601a      	str	r2, [r3, #0]
}
 800067a:	bf00      	nop
 800067c:	370c      	adds	r7, #12
 800067e:	46bd      	mov	sp, r7
 8000680:	bc80      	pop	{r7}
 8000682:	4770      	bx	lr

08000684 <rtos_list_add_priority>:

void rtos_list_add_priority(rtos_list_t *list, rtos_tcb_t *tcb) {
 8000684:	b580      	push	{r7, lr}
 8000686:	b084      	sub	sp, #16
 8000688:	af00      	add	r7, sp, #0
 800068a:	6078      	str	r0, [r7, #4]
 800068c:	6039      	str	r1, [r7, #0]
    /* Insert in priority order (lower priority value = higher priority) */
    if (list->head == NULL) {
 800068e:	687b      	ldr	r3, [r7, #4]
 8000690:	681b      	ldr	r3, [r3, #0]
 8000692:	2b00      	cmp	r3, #0
 8000694:	d10c      	bne.n	80006b0 <rtos_list_add_priority+0x2c>
        /* Empty list */
        tcb->next = NULL;
 8000696:	683b      	ldr	r3, [r7, #0]
 8000698:	2200      	movs	r2, #0
 800069a:	615a      	str	r2, [r3, #20]
        tcb->prev = NULL;
 800069c:	683b      	ldr	r3, [r7, #0]
 800069e:	2200      	movs	r2, #0
 80006a0:	619a      	str	r2, [r3, #24]
        list->head = tcb;
 80006a2:	687b      	ldr	r3, [r7, #4]
 80006a4:	683a      	ldr	r2, [r7, #0]
 80006a6:	601a      	str	r2, [r3, #0]
        list->tail = tcb;
 80006a8:	687b      	ldr	r3, [r7, #4]
 80006aa:	683a      	ldr	r2, [r7, #0]
 80006ac:	605a      	str	r2, [r3, #4]
        return;
 80006ae:	e02f      	b.n	8000710 <rtos_list_add_priority+0x8c>
    }

    /* Find insertion point */
    rtos_tcb_t *current = list->head;
 80006b0:	687b      	ldr	r3, [r7, #4]
 80006b2:	681b      	ldr	r3, [r3, #0]
 80006b4:	60fb      	str	r3, [r7, #12]
    while (current != NULL && current->priority <= tcb->priority) {
 80006b6:	e002      	b.n	80006be <rtos_list_add_priority+0x3a>
        current = current->next;
 80006b8:	68fb      	ldr	r3, [r7, #12]
 80006ba:	695b      	ldr	r3, [r3, #20]
 80006bc:	60fb      	str	r3, [r7, #12]
    while (current != NULL && current->priority <= tcb->priority) {
 80006be:	68fb      	ldr	r3, [r7, #12]
 80006c0:	2b00      	cmp	r3, #0
 80006c2:	d005      	beq.n	80006d0 <rtos_list_add_priority+0x4c>
 80006c4:	68fb      	ldr	r3, [r7, #12]
 80006c6:	685a      	ldr	r2, [r3, #4]
 80006c8:	683b      	ldr	r3, [r7, #0]
 80006ca:	685b      	ldr	r3, [r3, #4]
 80006cc:	429a      	cmp	r2, r3
 80006ce:	d9f3      	bls.n	80006b8 <rtos_list_add_priority+0x34>
    }

    if (current == NULL) {
 80006d0:	68fb      	ldr	r3, [r7, #12]
 80006d2:	2b00      	cmp	r3, #0
 80006d4:	d104      	bne.n	80006e0 <rtos_list_add_priority+0x5c>
        /* Insert at tail */
        rtos_list_add_tail(list, tcb);
 80006d6:	6839      	ldr	r1, [r7, #0]
 80006d8:	6878      	ldr	r0, [r7, #4]
 80006da:	f7ff ff93 	bl	8000604 <rtos_list_add_tail>
 80006de:	e017      	b.n	8000710 <rtos_list_add_priority+0x8c>
    } else if (current == list->head) {
 80006e0:	687b      	ldr	r3, [r7, #4]
 80006e2:	681b      	ldr	r3, [r3, #0]
 80006e4:	68fa      	ldr	r2, [r7, #12]
 80006e6:	429a      	cmp	r2, r3
 80006e8:	d104      	bne.n	80006f4 <rtos_list_add_priority+0x70>
        /* Insert at head */
        rtos_list_add_head(list, tcb);
 80006ea:	6839      	ldr	r1, [r7, #0]
 80006ec:	6878      	ldr	r0, [r7, #4]
 80006ee:	f7ff ffa9 	bl	8000644 <rtos_list_add_head>
 80006f2:	e00d      	b.n	8000710 <rtos_list_add_priority+0x8c>
    } else {
        /* Insert before current */
        tcb->next = current;
 80006f4:	683b      	ldr	r3, [r7, #0]
 80006f6:	68fa      	ldr	r2, [r7, #12]
 80006f8:	615a      	str	r2, [r3, #20]
        tcb->prev = current->prev;
 80006fa:	68fb      	ldr	r3, [r7, #12]
 80006fc:	699a      	ldr	r2, [r3, #24]
 80006fe:	683b      	ldr	r3, [r7, #0]
 8000700:	619a      	str	r2, [r3, #24]
        current->prev->next = tcb;
 8000702:	68fb      	ldr	r3, [r7, #12]
 8000704:	699b      	ldr	r3, [r3, #24]
 8000706:	683a      	ldr	r2, [r7, #0]
 8000708:	615a      	str	r2, [r3, #20]
        current->prev = tcb;
 800070a:	68fb      	ldr	r3, [r7, #12]
 800070c:	683a      	ldr	r2, [r7, #0]
 800070e:	619a      	str	r2, [r3, #24]
    }
}
 8000710:	3710      	adds	r7, #16
 8000712:	46bd      	mov	sp, r7
 8000714:	bd80      	pop	{r7, pc}

08000716 <rtos_list_remove>:

void rtos_list_remove(rtos_list_t *list, rtos_tcb_t *tcb) {
 8000716:	b480      	push	{r7}
 8000718:	b083      	sub	sp, #12
 800071a:	af00      	add	r7, sp, #0
 800071c:	6078      	str	r0, [r7, #4]
 800071e:	6039      	str	r1, [r7, #0]
    if (tcb->prev != NULL) {
 8000720:	683b      	ldr	r3, [r7, #0]
 8000722:	699b      	ldr	r3, [r3, #24]
 8000724:	2b00      	cmp	r3, #0
 8000726:	d005      	beq.n	8000734 <rtos_list_remove+0x1e>
        tcb->prev->next = tcb->next;
 8000728:	683b      	ldr	r3, [r7, #0]
 800072a:	699b      	ldr	r3, [r3, #24]
 800072c:	683a      	ldr	r2, [r7, #0]
 800072e:	6952      	ldr	r2, [r2, #20]
 8000730:	615a      	str	r2, [r3, #20]
 8000732:	e003      	b.n	800073c <rtos_list_remove+0x26>
    } else {
        list->head = tcb->next;
 8000734:	683b      	ldr	r3, [r7, #0]
 8000736:	695a      	ldr	r2, [r3, #20]
 8000738:	687b      	ldr	r3, [r7, #4]
 800073a:	601a      	str	r2, [r3, #0]
    }

    if (tcb->next != NULL) {
 800073c:	683b      	ldr	r3, [r7, #0]
 800073e:	695b      	ldr	r3, [r3, #20]
 8000740:	2b00      	cmp	r3, #0
 8000742:	d005      	beq.n	8000750 <rtos_list_remove+0x3a>
        tcb->next->prev = tcb->prev;
 8000744:	683b      	ldr	r3, [r7, #0]
 8000746:	695b      	ldr	r3, [r3, #20]
 8000748:	683a      	ldr	r2, [r7, #0]
 800074a:	6992      	ldr	r2, [r2, #24]
 800074c:	619a      	str	r2, [r3, #24]
 800074e:	e003      	b.n	8000758 <rtos_list_remove+0x42>
    } else {
        list->tail = tcb->prev;
 8000750:	683b      	ldr	r3, [r7, #0]
 8000752:	699a      	ldr	r2, [r3, #24]
 8000754:	687b      	ldr	r3, [r7, #4]
 8000756:	605a      	str	r2, [r3, #4]
    }

    tcb->next = NULL;
 8000758:	683b      	ldr	r3, [r7, #0]
 800075a:	2200      	movs	r2, #0
 800075c:	615a      	str	r2, [r3, #20]
    tcb->prev = NULL;
 800075e:	683b      	ldr	r3, [r7, #0]
 8000760:	2200      	movs	r2, #0
 8000762:	619a      	str	r2, [r3, #24]
}
 8000764:	bf00      	nop
 8000766:	370c      	adds	r7, #12
 8000768:	46bd      	mov	sp, r7
 800076a:	bc80      	pop	{r7}
 800076c:	4770      	bx	lr

0800076e <rtos_list_pop_head>:

rtos_tcb_t *rtos_list_pop_head(rtos_list_t *list) {
 800076e:	b480      	push	{r7}
 8000770:	b085      	sub	sp, #20
 8000772:	af00      	add	r7, sp, #0
 8000774:	6078      	str	r0, [r7, #4]
    rtos_tcb_t *tcb = list->head;
 8000776:	687b      	ldr	r3, [r7, #4]
 8000778:	681b      	ldr	r3, [r3, #0]
 800077a:	60fb      	str	r3, [r7, #12]

    if (tcb != NULL) {
 800077c:	68fb      	ldr	r3, [r7, #12]
 800077e:	2b00      	cmp	r3, #0
 8000780:	d015      	beq.n	80007ae <rtos_list_pop_head+0x40>
        list->head = tcb->next;
 8000782:	68fb      	ldr	r3, [r7, #12]
 8000784:	695a      	ldr	r2, [r3, #20]
 8000786:	687b      	ldr	r3, [r7, #4]
 8000788:	601a      	str	r2, [r3, #0]
        if (list->head != NULL) {
 800078a:	687b      	ldr	r3, [r7, #4]
 800078c:	681b      	ldr	r3, [r3, #0]
 800078e:	2b00      	cmp	r3, #0
 8000790:	d004      	beq.n	800079c <rtos_list_pop_head+0x2e>
            list->head->prev = NULL;
 8000792:	687b      	ldr	r3, [r7, #4]
 8000794:	681b      	ldr	r3, [r3, #0]
 8000796:	2200      	movs	r2, #0
 8000798:	619a      	str	r2, [r3, #24]
 800079a:	e002      	b.n	80007a2 <rtos_list_pop_head+0x34>
        } else {
            list->tail = NULL;
 800079c:	687b      	ldr	r3, [r7, #4]
 800079e:	2200      	movs	r2, #0
 80007a0:	605a      	str	r2, [r3, #4]
        }
        tcb->next = NULL;
 80007a2:	68fb      	ldr	r3, [r7, #12]
 80007a4:	2200      	movs	r2, #0
 80007a6:	615a      	str	r2, [r3, #20]
        tcb->prev = NULL;
 80007a8:	68fb      	ldr	r3, [r7, #12]
 80007aa:	2200      	movs	r2, #0
 80007ac:	619a      	str	r2, [r3, #24]
    }

    return tcb;
 80007ae:	68fb      	ldr	r3, [r7, #12]
}
 80007b0:	4618      	mov	r0, r3
 80007b2:	3714      	adds	r7, #20
 80007b4:	46bd      	mov	sp, r7
 80007b6:	bc80      	pop	{r7}
 80007b8:	4770      	bx	lr
	...

080007bc <rtos_add_ready>:

/*---------------------------------------------------------------------------*/
/* Ready List Operations */
/*---------------------------------------------------------------------------*/

void rtos_add_ready(rtos_tcb_t *tcb) {
 80007bc:	b580      	push	{r7, lr}
 80007be:	b084      	sub	sp, #16
 80007c0:	af00      	add	r7, sp, #0
 80007c2:	6078      	str	r0, [r7, #4]
    uint32_t priority = tcb->priority;
 80007c4:	687b      	ldr	r3, [r7, #4]
 80007c6:	685b      	ldr	r3, [r3, #4]
 80007c8:	60fb      	str	r3, [r7, #12]

    /* Add to the tail of the ready list for this priority */
    rtos_list_add_tail(&g_kernel.ready_list[priority], tcb);
 80007ca:	68fb      	ldr	r3, [r7, #12]
 80007cc:	00db      	lsls	r3, r3, #3
 80007ce:	4a0c      	ldr	r2, [pc, #48]	@ (8000800 <rtos_add_ready+0x44>)
 80007d0:	4413      	add	r3, r2
 80007d2:	3304      	adds	r3, #4
 80007d4:	6879      	ldr	r1, [r7, #4]
 80007d6:	4618      	mov	r0, r3
 80007d8:	f7ff ff14 	bl	8000604 <rtos_list_add_tail>

    /* Set the bit in the priority bitmap */
    g_kernel.priority_bitmap |= (1UL << (31 - priority));
 80007dc:	4b08      	ldr	r3, [pc, #32]	@ (8000800 <rtos_add_ready+0x44>)
 80007de:	681a      	ldr	r2, [r3, #0]
 80007e0:	f04f 4100 	mov.w	r1, #2147483648	@ 0x80000000
 80007e4:	68fb      	ldr	r3, [r7, #12]
 80007e6:	fa21 f303 	lsr.w	r3, r1, r3
 80007ea:	4313      	orrs	r3, r2
 80007ec:	4a04      	ldr	r2, [pc, #16]	@ (8000800 <rtos_add_ready+0x44>)
 80007ee:	6013      	str	r3, [r2, #0]

    tcb->state = RTOS_TASK_READY;
 80007f0:	687b      	ldr	r3, [r7, #4]
 80007f2:	2200      	movs	r2, #0
 80007f4:	731a      	strb	r2, [r3, #12]
}
 80007f6:	bf00      	nop
 80007f8:	3710      	adds	r7, #16
 80007fa:	46bd      	mov	sp, r7
 80007fc:	bd80      	pop	{r7, pc}
 80007fe:	bf00      	nop
 8000800:	20000000 	.word	0x20000000

08000804 <rtos_remove_ready>:

void rtos_remove_ready(rtos_tcb_t *tcb) {
 8000804:	b580      	push	{r7, lr}
 8000806:	b084      	sub	sp, #16
 8000808:	af00      	add	r7, sp, #0
 800080a:	6078      	str	r0, [r7, #4]
    uint32_t priority = tcb->priority;
 800080c:	687b      	ldr	r3, [r7, #4]
 800080e:	685b      	ldr	r3, [r3, #4]
 8000810:	60fb      	str	r3, [r7, #12]

    /* Remove from ready list */
    rtos_list_remove(&g_kernel.ready_list[priority], tcb);
 8000812:	68fb      	ldr	r3, [r7, #12]
 8000814:	00db      	lsls	r3, r3, #3
 8000816:	4a10      	ldr	r2, [pc, #64]	@ (8000858 <rtos_remove_ready+0x54>)
 8000818:	4413      	add	r3, r2
 800081a:	3304      	adds	r3, #4
 800081c:	6879      	ldr	r1, [r7, #4]
 800081e:	4618      	mov	r0, r3
 8000820:	f7ff ff79 	bl	8000716 <rtos_list_remove>

    /* Clear bitmap bit if list is now empty */
    if (rtos_list_is_empty(&g_kernel.ready_list[priority])) {
 8000824:	68fb      	ldr	r3, [r7, #12]
 8000826:	00db      	lsls	r3, r3, #3
 8000828:	4a0b      	ldr	r2, [pc, #44]	@ (8000858 <rtos_remove_ready+0x54>)
 800082a:	4413      	add	r3, r2
 800082c:	3304      	adds	r3, #4
 800082e:	4618      	mov	r0, r3
 8000830:	f7ff fed8 	bl	80005e4 <rtos_list_is_empty>
 8000834:	4603      	mov	r3, r0
 8000836:	2b00      	cmp	r3, #0
 8000838:	d00a      	beq.n	8000850 <rtos_remove_ready+0x4c>
        g_kernel.priority_bitmap &= ~(1UL << (31 - priority));
 800083a:	4b07      	ldr	r3, [pc, #28]	@ (8000858 <rtos_remove_ready+0x54>)
 800083c:	681a      	ldr	r2, [r3, #0]
 800083e:	f04f 4100 	mov.w	r1, #2147483648	@ 0x80000000
 8000842:	68fb      	ldr	r3, [r7, #12]
 8000844:	fa21 f303 	lsr.w	r3, r1, r3
 8000848:	43db      	mvns	r3, r3
 800084a:	4013      	ands	r3, r2
 800084c:	4a02      	ldr	r2, [pc, #8]	@ (8000858 <rtos_remove_ready+0x54>)
 800084e:	6013      	str	r3, [r2, #0]
    }
}
 8000850:	bf00      	nop
 8000852:	3710      	adds	r7, #16
 8000854:	46bd      	mov	sp, r7
 8000856:	bd80      	pop	{r7, pc}
 8000858:	20000000 	.word	0x20000000

0800085c <rtos_get_highest_priority_task>:

rtos_tcb_t *rtos_get_highest_priority_task(void) {
 800085c:	b580      	push	{r7, lr}
 800085e:	b082      	sub	sp, #8
 8000860:	af00      	add	r7, sp, #0
    if (g_kernel.priority_bitmap == 0) {
 8000862:	4b0a      	ldr	r3, [pc, #40]	@ (800088c <rtos_get_highest_priority_task+0x30>)
 8000864:	681b      	ldr	r3, [r3, #0]
 8000866:	2b00      	cmp	r3, #0
 8000868:	d101      	bne.n	800086e <rtos_get_highest_priority_task+0x12>
        return NULL;
 800086a:	2300      	movs	r3, #0
 800086c:	e00a      	b.n	8000884 <rtos_get_highest_priority_task+0x28>
    }

    /* Use CLZ to find highest priority in O(1) */
    uint32_t highest_priority = __CLZ(g_kernel.priority_bitmap);
 800086e:	4b07      	ldr	r3, [pc, #28]	@ (800088c <rtos_get_highest_priority_task+0x30>)
 8000870:	681b      	ldr	r3, [r3, #0]
 8000872:	4618      	mov	r0, r3
 8000874:	f7ff fe99 	bl	80005aa <__CLZ>
 8000878:	6078      	str	r0, [r7, #4]

    /* Return head of that priority's list */
    return g_kernel.ready_list[highest_priority].head;
 800087a:	4a04      	ldr	r2, [pc, #16]	@ (800088c <rtos_get_highest_priority_task+0x30>)
 800087c:	687b      	ldr	r3, [r7, #4]
 800087e:	00db      	lsls	r3, r3, #3
 8000880:	4413      	add	r3, r2
 8000882:	685b      	ldr	r3, [r3, #4]
}
 8000884:	4618      	mov	r0, r3
 8000886:	3708      	adds	r7, #8
 8000888:	46bd      	mov	sp, r7
 800088a:	bd80      	pop	{r7, pc}
 800088c:	20000000 	.word	0x20000000

08000890 <rtos_add_to_delay_list>:

/*---------------------------------------------------------------------------*/
/* Delay List Operations */
/*---------------------------------------------------------------------------*/

void rtos_add_to_delay_list(rtos_tcb_t *tcb, uint32_t ticks) {
 8000890:	b480      	push	{r7}
 8000892:	b085      	sub	sp, #20
 8000894:	af00      	add	r7, sp, #0
 8000896:	6078      	str	r0, [r7, #4]
 8000898:	6039      	str	r1, [r7, #0]
    tcb->wake_tick = g_kernel.tick_count + ticks;
 800089a:	4b30      	ldr	r3, [pc, #192]	@ (800095c <rtos_add_to_delay_list+0xcc>)
 800089c:	6ada      	ldr	r2, [r3, #44]	@ 0x2c
 800089e:	683b      	ldr	r3, [r7, #0]
 80008a0:	441a      	add	r2, r3
 80008a2:	687b      	ldr	r3, [r7, #4]
 80008a4:	611a      	str	r2, [r3, #16]
    tcb->state = RTOS_TASK_BLOCKED;
 80008a6:	687b      	ldr	r3, [r7, #4]
 80008a8:	2202      	movs	r2, #2
 80008aa:	731a      	strb	r2, [r3, #12]

    /* Add to delay list sorted by wake_tick */
    if (g_kernel.delay_list.head == NULL) {
 80008ac:	4b2b      	ldr	r3, [pc, #172]	@ (800095c <rtos_add_to_delay_list+0xcc>)
 80008ae:	6b5b      	ldr	r3, [r3, #52]	@ 0x34
 80008b0:	2b00      	cmp	r3, #0
 80008b2:	d10c      	bne.n	80008ce <rtos_add_to_delay_list+0x3e>
        tcb->next = NULL;
 80008b4:	687b      	ldr	r3, [r7, #4]
 80008b6:	2200      	movs	r2, #0
 80008b8:	615a      	str	r2, [r3, #20]
        tcb->prev = NULL;
 80008ba:	687b      	ldr	r3, [r7, #4]
 80008bc:	2200      	movs	r2, #0
 80008be:	619a      	str	r2, [r3, #24]
        g_kernel.delay_list.head = tcb;
 80008c0:	4a26      	ldr	r2, [pc, #152]	@ (800095c <rtos_add_to_delay_list+0xcc>)
 80008c2:	687b      	ldr	r3, [r7, #4]
 80008c4:	6353      	str	r3, [r2, #52]	@ 0x34
        g_kernel.delay_list.tail = tcb;
 80008c6:	4a25      	ldr	r2, [pc, #148]	@ (800095c <rtos_add_to_delay_list+0xcc>)
 80008c8:	687b      	ldr	r3, [r7, #4]
 80008ca:	6393      	str	r3, [r2, #56]	@ 0x38
        return;
 80008cc:	e042      	b.n	8000954 <rtos_add_to_delay_list+0xc4>
    }

    /* Find insertion point */
    rtos_tcb_t *current = g_kernel.delay_list.head;
 80008ce:	4b23      	ldr	r3, [pc, #140]	@ (800095c <rtos_add_to_delay_list+0xcc>)
 80008d0:	6b5b      	ldr	r3, [r3, #52]	@ 0x34
 80008d2:	60fb      	str	r3, [r7, #12]
    while (current != NULL && (int32_t)(current->wake_tick - tcb->wake_tick) <= 0) {
 80008d4:	e002      	b.n	80008dc <rtos_add_to_delay_list+0x4c>
        current = current->next;
 80008d6:	68fb      	ldr	r3, [r7, #12]
 80008d8:	695b      	ldr	r3, [r3, #20]
 80008da:	60fb      	str	r3, [r7, #12]
    while (current != NULL && (int32_t)(current->wake_tick - tcb->wake_tick) <= 0) {
 80008dc:	68fb      	ldr	r3, [r7, #12]
 80008de:	2b00      	cmp	r3, #0
 80008e0:	d006      	beq.n	80008f0 <rtos_add_to_delay_list+0x60>
 80008e2:	68fb      	ldr	r3, [r7, #12]
 80008e4:	691a      	ldr	r2, [r3, #16]
 80008e6:	687b      	ldr	r3, [r7, #4]
 80008e8:	691b      	ldr	r3, [r3, #16]
 80008ea:	1ad3      	subs	r3, r2, r3
 80008ec:	2b00      	cmp	r3, #0
 80008ee:	ddf2      	ble.n	80008d6 <rtos_add_to_delay_list+0x46>
    }

    if (current == NULL) {
 80008f0:	68fb      	ldr	r3, [r7, #12]
 80008f2:	2b00      	cmp	r3, #0
 80008f4:	d10e      	bne.n	8000914 <rtos_add_to_delay_list+0x84>
        /* Add at tail */
        tcb->next = NULL;
 80008f6:	687b      	ldr	r3, [r7, #4]
 80008f8:	2200      	movs	r2, #0
 80008fa:	615a      	str	r2, [r3, #20]
        tcb->prev = g_kernel.delay_list.tail;
 80008fc:	4b17      	ldr	r3, [pc, #92]	@ (800095c <rtos_add_to_delay_list+0xcc>)
 80008fe:	6b9a      	ldr	r2, [r3, #56]	@ 0x38
 8000900:	687b      	ldr	r3, [r7, #4]
 8000902:	619a      	str	r2, [r3, #24]
        g_kernel.delay_list.tail->next = tcb;
 8000904:	4b15      	ldr	r3, [pc, #84]	@ (800095c <rtos_add_to_delay_list+0xcc>)
 8000906:	6b9b      	ldr	r3, [r3, #56]	@ 0x38
 8000908:	687a      	ldr	r2, [r7, #4]
 800090a:	615a      	str	r2, [r3, #20]
        g_kernel.delay_list.tail = tcb;
 800090c:	4a13      	ldr	r2, [pc, #76]	@ (800095c <rtos_add_to_delay_list+0xcc>)
 800090e:	687b      	ldr	r3, [r7, #4]
 8000910:	6393      	str	r3, [r2, #56]	@ 0x38
 8000912:	e01f      	b.n	8000954 <rtos_add_to_delay_list+0xc4>
    } else if (current == g_kernel.delay_list.head) {
 8000914:	4b11      	ldr	r3, [pc, #68]	@ (800095c <rtos_add_to_delay_list+0xcc>)
 8000916:	6b5b      	ldr	r3, [r3, #52]	@ 0x34
 8000918:	68fa      	ldr	r2, [r7, #12]
 800091a:	429a      	cmp	r2, r3
 800091c:	d10c      	bne.n	8000938 <rtos_add_to_delay_list+0xa8>
        /* Add at head */
        tcb->prev = NULL;
 800091e:	687b      	ldr	r3, [r7, #4]
 8000920:	2200      	movs	r2, #0
 8000922:	619a      	str	r2, [r3, #24]
        tcb->next = current;
 8000924:	687b      	ldr	r3, [r7, #4]
 8000926:	68fa      	ldr	r2, [r7, #12]
 8000928:	615a      	str	r2, [r3, #20]
        current->prev = tcb;
 800092a:	68fb      	ldr	r3, [r7, #12]
 800092c:	687a      	ldr	r2, [r7, #4]
 800092e:	619a      	str	r2, [r3, #24]
        g_kernel.delay_list.head = tcb;
 8000930:	4a0a      	ldr	r2, [pc, #40]	@ (800095c <rtos_add_to_delay_list+0xcc>)
 8000932:	687b      	ldr	r3, [r7, #4]
 8000934:	6353      	str	r3, [r2, #52]	@ 0x34
 8000936:	e00d      	b.n	8000954 <rtos_add_to_delay_list+0xc4>
    } else {
        /* Insert before current */
        tcb->next = current;
 8000938:	687b      	ldr	r3, [r7, #4]
 800093a:	68fa      	ldr	r2, [r7, #12]
 800093c:	615a      	str	r2, [r3, #20]
        tcb->prev = current->prev;
 800093e:	68fb      	ldr	r3, [r7, #12]
 8000940:	699a      	ldr	r2, [r3, #24]
 8000942:	687b      	ldr	r3, [r7, #4]
 8000944:	619a      	str	r2, [r3, #24]
        current->prev->next = tcb;
 8000946:	68fb      	ldr	r3, [r7, #12]
 8000948:	699b      	ldr	r3, [r3, #24]
 800094a:	687a      	ldr	r2, [r7, #4]
 800094c:	615a      	str	r2, [r3, #20]
        current->prev = tcb;
 800094e:	68fb      	ldr	r3, [r7, #12]
 8000950:	687a      	ldr	r2, [r7, #4]
 8000952:	619a      	str	r2, [r3, #24]
    }
}
 8000954:	3714      	adds	r7, #20
 8000956:	46bd      	mov	sp, r7
 8000958:	bc80      	pop	{r7}
 800095a:	4770      	bx	lr
 800095c:	20000000 	.word	0x20000000

08000960 <rtos_check_delayed_tasks>:

void rtos_check_delayed_tasks(void) {
 8000960:	b580      	push	{r7, lr}
 8000962:	b082      	sub	sp, #8
 8000964:	af00      	add	r7, sp, #0
    rtos_tcb_t *tcb = g_kernel.delay_list.head;
 8000966:	4b10      	ldr	r3, [pc, #64]	@ (80009a8 <rtos_check_delayed_tasks+0x48>)
 8000968:	6b5b      	ldr	r3, [r3, #52]	@ 0x34
 800096a:	607b      	str	r3, [r7, #4]

    while (tcb != NULL) {
 800096c:	e012      	b.n	8000994 <rtos_check_delayed_tasks+0x34>
        /* Check if it's time to wake this task */
        if ((int32_t)(g_kernel.tick_count - tcb->wake_tick) >= 0) {
 800096e:	4b0e      	ldr	r3, [pc, #56]	@ (80009a8 <rtos_check_delayed_tasks+0x48>)
 8000970:	6ada      	ldr	r2, [r3, #44]	@ 0x2c
 8000972:	687b      	ldr	r3, [r7, #4]
 8000974:	691b      	ldr	r3, [r3, #16]
 8000976:	1ad3      	subs	r3, r2, r3
 8000978:	2b00      	cmp	r3, #0
 800097a:	db0f      	blt.n	800099c <rtos_check_delayed_tasks+0x3c>
            rtos_tcb_t *next = tcb->next;
 800097c:	687b      	ldr	r3, [r7, #4]
 800097e:	695b      	ldr	r3, [r3, #20]
 8000980:	603b      	str	r3, [r7, #0]

            /* Remove from delay list */
            rtos_list_remove(&g_kernel.delay_list, tcb);
 8000982:	6879      	ldr	r1, [r7, #4]
 8000984:	4809      	ldr	r0, [pc, #36]	@ (80009ac <rtos_check_delayed_tasks+0x4c>)
 8000986:	f7ff fec6 	bl	8000716 <rtos_list_remove>

            /* Add back to ready list */
            rtos_add_ready(tcb);
 800098a:	6878      	ldr	r0, [r7, #4]
 800098c:	f7ff ff16 	bl	80007bc <rtos_add_ready>

            tcb = next;
 8000990:	683b      	ldr	r3, [r7, #0]
 8000992:	607b      	str	r3, [r7, #4]
    while (tcb != NULL) {
 8000994:	687b      	ldr	r3, [r7, #4]
 8000996:	2b00      	cmp	r3, #0
 8000998:	d1e9      	bne.n	800096e <rtos_check_delayed_tasks+0xe>
        } else {
            /* List is sorted, so no more tasks to wake */
            break;
        }
    }
}
 800099a:	e000      	b.n	800099e <rtos_check_delayed_tasks+0x3e>
            break;
 800099c:	bf00      	nop
}
 800099e:	bf00      	nop
 80009a0:	3708      	adds	r7, #8
 80009a2:	46bd      	mov	sp, r7
 80009a4:	bd80      	pop	{r7, pc}
 80009a6:	bf00      	nop
 80009a8:	20000000 	.word	0x20000000
 80009ac:	20000034 	.word	0x20000034

080009b0 <rtos_schedule>:

/*---------------------------------------------------------------------------*/
/* Scheduler */
/*---------------------------------------------------------------------------*/

void rtos_schedule(void) {
 80009b0:	b580      	push	{r7, lr}
 80009b2:	b082      	sub	sp, #8
 80009b4:	af00      	add	r7, sp, #0
    /* This is called from PendSV with interrupts disabled */

    /* Update statistics for current task */
#if RTOS_ENABLE_STATS
    if (g_kernel.current_task != NULL) {
 80009b6:	4b1c      	ldr	r3, [pc, #112]	@ (8000a28 <rtos_schedule+0x78>)
 80009b8:	6a5b      	ldr	r3, [r3, #36]	@ 0x24
 80009ba:	2b00      	cmp	r3, #0
 80009bc:	d004      	beq.n	80009c8 <rtos_schedule+0x18>
        g_kernel.current_task->total_ticks++;
 80009be:	4b1a      	ldr	r3, [pc, #104]	@ (8000a28 <rtos_schedule+0x78>)
 80009c0:	6a5b      	ldr	r3, [r3, #36]	@ 0x24
 80009c2:	6bda      	ldr	r2, [r3, #60]	@ 0x3c
 80009c4:	3201      	adds	r2, #1
 80009c6:	63da      	str	r2, [r3, #60]	@ 0x3c
    }
    g_kernel.context_switches++;
 80009c8:	4b17      	ldr	r3, [pc, #92]	@ (8000a28 <rtos_schedule+0x78>)
 80009ca:	6c1b      	ldr	r3, [r3, #64]	@ 0x40
 80009cc:	3301      	adds	r3, #1
 80009ce:	4a16      	ldr	r2, [pc, #88]	@ (8000a28 <rtos_schedule+0x78>)
 80009d0:	6413      	str	r3, [r2, #64]	@ 0x40
#endif

    /* If current task is still running/ready, put it back in ready list */
    if (g_kernel.current_task != NULL &&
 80009d2:	4b15      	ldr	r3, [pc, #84]	@ (8000a28 <rtos_schedule+0x78>)
 80009d4:	6a5b      	ldr	r3, [r3, #36]	@ 0x24
 80009d6:	2b00      	cmp	r3, #0
 80009d8:	d00d      	beq.n	80009f6 <rtos_schedule+0x46>
        g_kernel.current_task->state == RTOS_TASK_RUNNING) {
 80009da:	4b13      	ldr	r3, [pc, #76]	@ (8000a28 <rtos_schedule+0x78>)
 80009dc:	6a5b      	ldr	r3, [r3, #36]	@ 0x24
 80009de:	7b1b      	ldrb	r3, [r3, #12]
    if (g_kernel.current_task != NULL &&
 80009e0:	2b01      	cmp	r3, #1
 80009e2:	d108      	bne.n	80009f6 <rtos_schedule+0x46>
        g_kernel.current_task->state = RTOS_TASK_READY;
 80009e4:	4b10      	ldr	r3, [pc, #64]	@ (8000a28 <rtos_schedule+0x78>)
 80009e6:	6a5b      	ldr	r3, [r3, #36]	@ 0x24
 80009e8:	2200      	movs	r2, #0
 80009ea:	731a      	strb	r2, [r3, #12]
        rtos_add_ready(g_kernel.current_task);
 80009ec:	4b0e      	ldr	r3, [pc, #56]	@ (8000a28 <rtos_schedule+0x78>)
 80009ee:	6a5b      	ldr	r3, [r3, #36]	@ 0x24
 80009f0:	4618      	mov	r0, r3
 80009f2:	f7ff fee3 	bl	80007bc <rtos_add_ready>
    }

    /* Get highest priority ready task */
    rtos_tcb_t *next = rtos_get_highest_priority_task();
 80009f6:	f7ff ff31 	bl	800085c <rtos_get_highest_priority_task>
 80009fa:	6078      	str	r0, [r7, #4]

    if (next != NULL) {
 80009fc:	687b      	ldr	r3, [r7, #4]
 80009fe:	2b00      	cmp	r3, #0
 8000a00:	d00a      	beq.n	8000a18 <rtos_schedule+0x68>
        /* Remove from ready list */
        rtos_remove_ready(next);
 8000a02:	6878      	ldr	r0, [r7, #4]
 8000a04:	f7ff fefe 	bl	8000804 <rtos_remove_ready>
        next->state = RTOS_TASK_RUNNING;
 8000a08:	687b      	ldr	r3, [r7, #4]
 8000a0a:	2201      	movs	r2, #1
 8000a0c:	731a      	strb	r2, [r3, #12]

#if RTOS_ENABLE_STATS
        next->run_count++;
 8000a0e:	687b      	ldr	r3, [r7, #4]
 8000a10:	6b9b      	ldr	r3, [r3, #56]	@ 0x38
 8000a12:	1c5a      	adds	r2, r3, #1
 8000a14:	687b      	ldr	r3, [r7, #4]
 8000a16:	639a      	str	r2, [r3, #56]	@ 0x38
#endif
    }

    /* Switch to next task */
    g_kernel.current_task = next;
 8000a18:	4a03      	ldr	r2, [pc, #12]	@ (8000a28 <rtos_schedule+0x78>)
 8000a1a:	687b      	ldr	r3, [r7, #4]
 8000a1c:	6253      	str	r3, [r2, #36]	@ 0x24
}
 8000a1e:	bf00      	nop
 8000a20:	3708      	adds	r7, #8
 8000a22:	46bd      	mov	sp, r7
 8000a24:	bd80      	pop	{r7, pc}
 8000a26:	bf00      	nop
 8000a28:	20000000 	.word	0x20000000

08000a2c <rtos_idle_task>:

/*---------------------------------------------------------------------------*/
/* Idle Task */
/*---------------------------------------------------------------------------*/

void rtos_idle_task(void *arg) {
 8000a2c:	b580      	push	{r7, lr}
 8000a2e:	b082      	sub	sp, #8
 8000a30:	af00      	add	r7, sp, #0
 8000a32:	6078      	str	r0, [r7, #4]
    (void)arg;

    while (1) {
#if RTOS_ENABLE_STATS
        g_kernel.idle_ticks++;
 8000a34:	4b04      	ldr	r3, [pc, #16]	@ (8000a48 <rtos_idle_task+0x1c>)
 8000a36:	6c5b      	ldr	r3, [r3, #68]	@ 0x44
 8000a38:	3301      	adds	r3, #1
 8000a3a:	4a03      	ldr	r2, [pc, #12]	@ (8000a48 <rtos_idle_task+0x1c>)
 8000a3c:	6453      	str	r3, [r2, #68]	@ 0x44
#endif
        /* Low power wait for interrupt */
        __WFI();
 8000a3e:	f7ff fdad 	bl	800059c <__WFI>
        g_kernel.idle_ticks++;
 8000a42:	bf00      	nop
 8000a44:	e7f6      	b.n	8000a34 <rtos_idle_task+0x8>
 8000a46:	bf00      	nop
 8000a48:	20000000 	.word	0x20000000

08000a4c <rtos_init>:

/*---------------------------------------------------------------------------*/
/* Kernel API */
/*---------------------------------------------------------------------------*/

void rtos_init(void) {
 8000a4c:	b580      	push	{r7, lr}
 8000a4e:	b086      	sub	sp, #24
 8000a50:	af04      	add	r7, sp, #16
    /* Initialize kernel state */
    memset(&g_kernel, 0, sizeof(g_kernel));
 8000a52:	2248      	movs	r2, #72	@ 0x48
 8000a54:	2100      	movs	r1, #0
 8000a56:	4814      	ldr	r0, [pc, #80]	@ (8000aa8 <rtos_init+0x5c>)
 8000a58:	f001 face 	bl	8001ff8 <memset>

    /* Initialize all ready lists */
    for (int i = 0; i < RTOS_MAX_PRIORITIES; i++) {
 8000a5c:	2300      	movs	r3, #0
 8000a5e:	607b      	str	r3, [r7, #4]
 8000a60:	e00a      	b.n	8000a78 <rtos_init+0x2c>
        rtos_list_init(&g_kernel.ready_list[i]);
 8000a62:	687b      	ldr	r3, [r7, #4]
 8000a64:	00db      	lsls	r3, r3, #3
 8000a66:	4a10      	ldr	r2, [pc, #64]	@ (8000aa8 <rtos_init+0x5c>)
 8000a68:	4413      	add	r3, r2
 8000a6a:	3304      	adds	r3, #4
 8000a6c:	4618      	mov	r0, r3
 8000a6e:	f7ff fdaa 	bl	80005c6 <rtos_list_init>
    for (int i = 0; i < RTOS_MAX_PRIORITIES; i++) {
 8000a72:	687b      	ldr	r3, [r7, #4]
 8000a74:	3301      	adds	r3, #1
 8000a76:	607b      	str	r3, [r7, #4]
 8000a78:	687b      	ldr	r3, [r7, #4]
 8000a7a:	2b03      	cmp	r3, #3
 8000a7c:	ddf1      	ble.n	8000a62 <rtos_init+0x16>
    }

    /* Initialize delay list */
    rtos_list_init(&g_kernel.delay_list);
 8000a7e:	480b      	ldr	r0, [pc, #44]	@ (8000aac <rtos_init+0x60>)
 8000a80:	f7ff fda1 	bl	80005c6 <rtos_list_init>

    /* Initialize port (SysTick, PendSV priorities) */
    rtos_port_init();
 8000a84:	f7ff fc56 	bl	8000334 <rtos_port_init>

    /* Create idle task at lowest priority */
    rtos_task_create(rtos_idle_task, "Idle",
 8000a88:	2300      	movs	r3, #0
 8000a8a:	9302      	str	r3, [sp, #8]
 8000a8c:	4b08      	ldr	r3, [pc, #32]	@ (8000ab0 <rtos_init+0x64>)
 8000a8e:	9301      	str	r3, [sp, #4]
 8000a90:	2380      	movs	r3, #128	@ 0x80
 8000a92:	9300      	str	r3, [sp, #0]
 8000a94:	4b07      	ldr	r3, [pc, #28]	@ (8000ab4 <rtos_init+0x68>)
 8000a96:	2203      	movs	r2, #3
 8000a98:	4907      	ldr	r1, [pc, #28]	@ (8000ab8 <rtos_init+0x6c>)
 8000a9a:	4808      	ldr	r0, [pc, #32]	@ (8000abc <rtos_init+0x70>)
 8000a9c:	f000 f854 	bl	8000b48 <rtos_task_create>
                     RTOS_MAX_PRIORITIES - 1,
                     idle_stack, RTOS_IDLE_STACK_SIZE,
                     &idle_tcb, NULL);
}
 8000aa0:	bf00      	nop
 8000aa2:	3708      	adds	r7, #8
 8000aa4:	46bd      	mov	sp, r7
 8000aa6:	bd80      	pop	{r7, pc}
 8000aa8:	20000000 	.word	0x20000000
 8000aac:	20000034 	.word	0x20000034
 8000ab0:	20000048 	.word	0x20000048
 8000ab4:	20000088 	.word	0x20000088
 8000ab8:	080020ec 	.word	0x080020ec
 8000abc:	08000a2d 	.word	0x08000a2d

08000ac0 <rtos_start>:

void rtos_start(void) {
 8000ac0:	b580      	push	{r7, lr}
 8000ac2:	af00      	add	r7, sp, #0
    /* Get first task to run */
    g_kernel.current_task = rtos_get_highest_priority_task();
 8000ac4:	f7ff feca 	bl	800085c <rtos_get_highest_priority_task>
 8000ac8:	4603      	mov	r3, r0
 8000aca:	4a0f      	ldr	r2, [pc, #60]	@ (8000b08 <rtos_start+0x48>)
 8000acc:	6253      	str	r3, [r2, #36]	@ 0x24

    if (g_kernel.current_task == NULL) {
 8000ace:	4b0e      	ldr	r3, [pc, #56]	@ (8000b08 <rtos_start+0x48>)
 8000ad0:	6a5b      	ldr	r3, [r3, #36]	@ 0x24
 8000ad2:	2b00      	cmp	r3, #0
 8000ad4:	d101      	bne.n	8000ada <rtos_start+0x1a>
        /* No tasks - shouldn't happen as idle task was created */
        while (1);
 8000ad6:	bf00      	nop
 8000ad8:	e7fd      	b.n	8000ad6 <rtos_start+0x16>
    }

    /* Remove from ready list */
    rtos_remove_ready(g_kernel.current_task);
 8000ada:	4b0b      	ldr	r3, [pc, #44]	@ (8000b08 <rtos_start+0x48>)
 8000adc:	6a5b      	ldr	r3, [r3, #36]	@ 0x24
 8000ade:	4618      	mov	r0, r3
 8000ae0:	f7ff fe90 	bl	8000804 <rtos_remove_ready>
    g_kernel.current_task->state = RTOS_TASK_RUNNING;
 8000ae4:	4b08      	ldr	r3, [pc, #32]	@ (8000b08 <rtos_start+0x48>)
 8000ae6:	6a5b      	ldr	r3, [r3, #36]	@ 0x24
 8000ae8:	2201      	movs	r2, #1
 8000aea:	731a      	strb	r2, [r3, #12]

    /* Mark scheduler as running */
    g_kernel.scheduler_running = 1;
 8000aec:	4b06      	ldr	r3, [pc, #24]	@ (8000b08 <rtos_start+0x48>)
 8000aee:	2201      	movs	r2, #1
 8000af0:	f883 2030 	strb.w	r2, [r3, #48]	@ 0x30

#if RTOS_ENABLE_STATS
    g_kernel.current_task->run_count++;
 8000af4:	4b04      	ldr	r3, [pc, #16]	@ (8000b08 <rtos_start+0x48>)
 8000af6:	6a5b      	ldr	r3, [r3, #36]	@ 0x24
 8000af8:	6b9a      	ldr	r2, [r3, #56]	@ 0x38
 8000afa:	3201      	adds	r2, #1
 8000afc:	639a      	str	r2, [r3, #56]	@ 0x38
#endif

    /* Start first task */
    rtos_port_start_first_task();
 8000afe:	f7ff fccf 	bl	80004a0 <rtos_port_start_first_task>

    /* Should never reach here */
    while (1);
 8000b02:	bf00      	nop
 8000b04:	e7fd      	b.n	8000b02 <rtos_start+0x42>
 8000b06:	bf00      	nop
 8000b08:	20000000 	.word	0x20000000

08000b0c <rtos_now>:
}

uint32_t rtos_now(void) {
 8000b0c:	b480      	push	{r7}
 8000b0e:	af00      	add	r7, sp, #0
    return g_kernel.tick_count;
 8000b10:	4b02      	ldr	r3, [pc, #8]	@ (8000b1c <rtos_now+0x10>)
 8000b12:	6adb      	ldr	r3, [r3, #44]	@ 0x2c
}
 8000b14:	4618      	mov	r0, r3
 8000b16:	46bd      	mov	sp, r7
 8000b18:	bc80      	pop	{r7}
 8000b1a:	4770      	bx	lr
 8000b1c:	20000000 	.word	0x20000000

08000b20 <rtos_stats_context_switches>:
/*---------------------------------------------------------------------------*/
/* Statistics API */
/*---------------------------------------------------------------------------*/

#if RTOS_ENABLE_STATS
uint32_t rtos_stats_context_switches(void) {
 8000b20:	b480      	push	{r7}
 8000b22:	af00      	add	r7, sp, #0
    return g_kernel.context_switches;
 8000b24:	4b02      	ldr	r3, [pc, #8]	@ (8000b30 <rtos_stats_context_switches+0x10>)
 8000b26:	6c1b      	ldr	r3, [r3, #64]	@ 0x40
}
 8000b28:	4618      	mov	r0, r3
 8000b2a:	46bd      	mov	sp, r7
 8000b2c:	bc80      	pop	{r7}
 8000b2e:	4770      	bx	lr
 8000b30:	20000000 	.word	0x20000000

08000b34 <rtos_stats_idle_ticks>:

uint32_t rtos_stats_idle_ticks(void) {
 8000b34:	b480      	push	{r7}
 8000b36:	af00      	add	r7, sp, #0
    return g_kernel.idle_ticks;
 8000b38:	4b02      	ldr	r3, [pc, #8]	@ (8000b44 <rtos_stats_idle_ticks+0x10>)
 8000b3a:	6c5b      	ldr	r3, [r3, #68]	@ 0x44
}
 8000b3c:	4618      	mov	r0, r3
 8000b3e:	46bd      	mov	sp, r7
 8000b40:	bc80      	pop	{r7}
 8000b42:	4770      	bx	lr
 8000b44:	20000000 	.word	0x20000000

08000b48 <rtos_task_create>:
/*---------------------------------------------------------------------------*/

rtos_status_t rtos_task_create(rtos_task_fn_t fn, const char *name,
                                uint8_t priority, uint32_t *stack,
                                uint32_t stack_size, rtos_tcb_t *tcb,
                                void *arg) {
 8000b48:	b580      	push	{r7, lr}
 8000b4a:	b088      	sub	sp, #32
 8000b4c:	af00      	add	r7, sp, #0
 8000b4e:	60f8      	str	r0, [r7, #12]
 8000b50:	60b9      	str	r1, [r7, #8]
 8000b52:	603b      	str	r3, [r7, #0]
 8000b54:	4613      	mov	r3, r2
 8000b56:	71fb      	strb	r3, [r7, #7]
    /* Validate parameters */
    if (fn == NULL || stack == NULL || tcb == NULL) {
 8000b58:	68fb      	ldr	r3, [r7, #12]
 8000b5a:	2b00      	cmp	r3, #0
 8000b5c:	d005      	beq.n	8000b6a <rtos_task_create+0x22>
 8000b5e:	683b      	ldr	r3, [r7, #0]
 8000b60:	2b00      	cmp	r3, #0
 8000b62:	d002      	beq.n	8000b6a <rtos_task_create+0x22>
 8000b64:	6afb      	ldr	r3, [r7, #44]	@ 0x2c
 8000b66:	2b00      	cmp	r3, #0
 8000b68:	d102      	bne.n	8000b70 <rtos_task_create+0x28>
        return RTOS_ERR_PARAM;
 8000b6a:	f04f 33ff 	mov.w	r3, #4294967295	@ 0xffffffff
 8000b6e:	e06a      	b.n	8000c46 <rtos_task_create+0xfe>
    }

    if (priority >= RTOS_MAX_PRIORITIES) {
 8000b70:	79fb      	ldrb	r3, [r7, #7]
 8000b72:	2b03      	cmp	r3, #3
 8000b74:	d902      	bls.n	8000b7c <rtos_task_create+0x34>
        return RTOS_ERR_PARAM;
 8000b76:	f04f 33ff 	mov.w	r3, #4294967295	@ 0xffffffff
 8000b7a:	e064      	b.n	8000c46 <rtos_task_create+0xfe>
    }

    if (stack_size < 32) {
 8000b7c:	6abb      	ldr	r3, [r7, #40]	@ 0x28
 8000b7e:	2b1f      	cmp	r3, #31
 8000b80:	d802      	bhi.n	8000b88 <rtos_task_create+0x40>
        return RTOS_ERR_PARAM;
 8000b82:	f04f 33ff 	mov.w	r3, #4294967295	@ 0xffffffff
 8000b86:	e05e      	b.n	8000c46 <rtos_task_create+0xfe>
    }

    uint32_t state = rtos_enter_critical();
 8000b88:	f7ff fcf0 	bl	800056c <rtos_enter_critical>
 8000b8c:	61b8      	str	r0, [r7, #24]

    /* Initialize TCB */
    memset(tcb, 0, sizeof(rtos_tcb_t));
 8000b8e:	2240      	movs	r2, #64	@ 0x40
 8000b90:	2100      	movs	r1, #0
 8000b92:	6af8      	ldr	r0, [r7, #44]	@ 0x2c
 8000b94:	f001 fa30 	bl	8001ff8 <memset>

    /* Copy task name */
    if (name != NULL) {
 8000b98:	68bb      	ldr	r3, [r7, #8]
 8000b9a:	2b00      	cmp	r3, #0
 8000b9c:	d00b      	beq.n	8000bb6 <rtos_task_create+0x6e>
        strncpy(tcb->name, name, sizeof(tcb->name) - 1);
 8000b9e:	6afb      	ldr	r3, [r7, #44]	@ 0x2c
 8000ba0:	331c      	adds	r3, #28
 8000ba2:	220f      	movs	r2, #15
 8000ba4:	68b9      	ldr	r1, [r7, #8]
 8000ba6:	4618      	mov	r0, r3
 8000ba8:	f001 fa6a 	bl	8002080 <strncpy>
        tcb->name[sizeof(tcb->name) - 1] = '\0';
 8000bac:	6afb      	ldr	r3, [r7, #44]	@ 0x2c
 8000bae:	2200      	movs	r2, #0
 8000bb0:	f883 202b 	strb.w	r2, [r3, #43]	@ 0x2b
 8000bb4:	e007      	b.n	8000bc6 <rtos_task_create+0x7e>
    } else {
        strcpy(tcb->name, "unnamed");
 8000bb6:	6afb      	ldr	r3, [r7, #44]	@ 0x2c
 8000bb8:	331c      	adds	r3, #28
 8000bba:	4925      	ldr	r1, [pc, #148]	@ (8000c50 <rtos_task_create+0x108>)
 8000bbc:	461a      	mov	r2, r3
 8000bbe:	460b      	mov	r3, r1
 8000bc0:	cb03      	ldmia	r3!, {r0, r1}
 8000bc2:	6010      	str	r0, [r2, #0]
 8000bc4:	6051      	str	r1, [r2, #4]
    }

    /* Set priorities */
    tcb->priority = priority;
 8000bc6:	79fa      	ldrb	r2, [r7, #7]
 8000bc8:	6afb      	ldr	r3, [r7, #44]	@ 0x2c
 8000bca:	605a      	str	r2, [r3, #4]
    tcb->base_priority = priority;
 8000bcc:	79fa      	ldrb	r2, [r7, #7]
 8000bce:	6afb      	ldr	r3, [r7, #44]	@ 0x2c
 8000bd0:	609a      	str	r2, [r3, #8]

    /* Set stack information */
    tcb->stack_base = stack;
 8000bd2:	6afb      	ldr	r3, [r7, #44]	@ 0x2c
 8000bd4:	683a      	ldr	r2, [r7, #0]
 8000bd6:	62da      	str	r2, [r3, #44]	@ 0x2c
    tcb->stack_size = stack_size;
 8000bd8:	6afb      	ldr	r3, [r7, #44]	@ 0x2c
 8000bda:	6aba      	ldr	r2, [r7, #40]	@ 0x28
 8000bdc:	631a      	str	r2, [r3, #48]	@ 0x30

#if RTOS_ENABLE_STACK_CHECK
    /* Fill stack with marker pattern for overflow detection */
    for (uint32_t i = 0; i < stack_size; i++) {
 8000bde:	2300      	movs	r3, #0
 8000be0:	61fb      	str	r3, [r7, #28]
 8000be2:	e008      	b.n	8000bf6 <rtos_task_create+0xae>
        stack[i] = STACK_MARKER;
 8000be4:	69fb      	ldr	r3, [r7, #28]
 8000be6:	009b      	lsls	r3, r3, #2
 8000be8:	683a      	ldr	r2, [r7, #0]
 8000bea:	4413      	add	r3, r2
 8000bec:	4a19      	ldr	r2, [pc, #100]	@ (8000c54 <rtos_task_create+0x10c>)
 8000bee:	601a      	str	r2, [r3, #0]
    for (uint32_t i = 0; i < stack_size; i++) {
 8000bf0:	69fb      	ldr	r3, [r7, #28]
 8000bf2:	3301      	adds	r3, #1
 8000bf4:	61fb      	str	r3, [r7, #28]
 8000bf6:	69fa      	ldr	r2, [r7, #28]
 8000bf8:	6abb      	ldr	r3, [r7, #40]	@ 0x28
 8000bfa:	429a      	cmp	r2, r3
 8000bfc:	d3f2      	bcc.n	8000be4 <rtos_task_create+0x9c>
    }
#endif

    /* Initialize stack (stack grows downward) */
    uint32_t *stack_top = stack + stack_size;
 8000bfe:	6abb      	ldr	r3, [r7, #40]	@ 0x28
 8000c00:	009b      	lsls	r3, r3, #2
 8000c02:	683a      	ldr	r2, [r7, #0]
 8000c04:	4413      	add	r3, r2
 8000c06:	617b      	str	r3, [r7, #20]
    tcb->stack_ptr = rtos_port_init_stack(stack_top, fn, arg);
 8000c08:	6b3a      	ldr	r2, [r7, #48]	@ 0x30
 8000c0a:	68f9      	ldr	r1, [r7, #12]
 8000c0c:	6978      	ldr	r0, [r7, #20]
 8000c0e:	f7ff fbad 	bl	800036c <rtos_port_init_stack>
 8000c12:	4602      	mov	r2, r0
 8000c14:	6afb      	ldr	r3, [r7, #44]	@ 0x2c
 8000c16:	601a      	str	r2, [r3, #0]

    /* Set initial state */
    tcb->state = RTOS_TASK_READY;
 8000c18:	6afb      	ldr	r3, [r7, #44]	@ 0x2c
 8000c1a:	2200      	movs	r2, #0
 8000c1c:	731a      	strb	r2, [r3, #12]

    /* Add to ready list */
    rtos_add_ready(tcb);
 8000c1e:	6af8      	ldr	r0, [r7, #44]	@ 0x2c
 8000c20:	f7ff fdcc 	bl	80007bc <rtos_add_ready>

    rtos_exit_critical(state);
 8000c24:	69b8      	ldr	r0, [r7, #24]
 8000c26:	f7ff fcae 	bl	8000586 <rtos_exit_critical>

    /* If scheduler is running and new task has higher priority, yield */
    if (g_kernel.scheduler_running && priority < g_kernel.current_task->priority) {
 8000c2a:	4b0b      	ldr	r3, [pc, #44]	@ (8000c58 <rtos_task_create+0x110>)
 8000c2c:	f893 3030 	ldrb.w	r3, [r3, #48]	@ 0x30
 8000c30:	2b00      	cmp	r3, #0
 8000c32:	d007      	beq.n	8000c44 <rtos_task_create+0xfc>
 8000c34:	79fa      	ldrb	r2, [r7, #7]
 8000c36:	4b08      	ldr	r3, [pc, #32]	@ (8000c58 <rtos_task_create+0x110>)
 8000c38:	6a5b      	ldr	r3, [r3, #36]	@ 0x24
 8000c3a:	685b      	ldr	r3, [r3, #4]
 8000c3c:	429a      	cmp	r2, r3
 8000c3e:	d201      	bcs.n	8000c44 <rtos_task_create+0xfc>
        rtos_yield();
 8000c40:	f000 f80c 	bl	8000c5c <rtos_yield>
    }

    return RTOS_OK;
 8000c44:	2300      	movs	r3, #0
}
 8000c46:	4618      	mov	r0, r3
 8000c48:	3720      	adds	r7, #32
 8000c4a:	46bd      	mov	sp, r7
 8000c4c:	bd80      	pop	{r7, pc}
 8000c4e:	bf00      	nop
 8000c50:	080020f4 	.word	0x080020f4
 8000c54:	deadbeef 	.word	0xdeadbeef
 8000c58:	20000000 	.word	0x20000000

08000c5c <rtos_yield>:

/*---------------------------------------------------------------------------*/
/* Task Yield */
/*---------------------------------------------------------------------------*/

void rtos_yield(void) {
 8000c5c:	b580      	push	{r7, lr}
 8000c5e:	af00      	add	r7, sp, #0
    if (!g_kernel.scheduler_running) {
 8000c60:	4b06      	ldr	r3, [pc, #24]	@ (8000c7c <rtos_yield+0x20>)
 8000c62:	f893 3030 	ldrb.w	r3, [r3, #48]	@ 0x30
 8000c66:	2b00      	cmp	r3, #0
 8000c68:	d006      	beq.n	8000c78 <rtos_yield+0x1c>
        return;
    }

    /* Mark current task as ready (will be put back in ready list by scheduler) */
    g_kernel.current_task->state = RTOS_TASK_READY;
 8000c6a:	4b04      	ldr	r3, [pc, #16]	@ (8000c7c <rtos_yield+0x20>)
 8000c6c:	6a5b      	ldr	r3, [r3, #36]	@ 0x24
 8000c6e:	2200      	movs	r2, #0
 8000c70:	731a      	strb	r2, [r3, #12]

    /* Trigger context switch */
    rtos_trigger_context_switch();
 8000c72:	f7ff fc05 	bl	8000480 <rtos_trigger_context_switch>
 8000c76:	e000      	b.n	8000c7a <rtos_yield+0x1e>
        return;
 8000c78:	bf00      	nop
}
 8000c7a:	bd80      	pop	{r7, pc}
 8000c7c:	20000000 	.word	0x20000000

08000c80 <rtos_delay_until>:

    /* Trigger context switch */
    rtos_trigger_context_switch();
}

void rtos_delay_until(uint32_t wake_tick) {
 8000c80:	b580      	push	{r7, lr}
 8000c82:	b084      	sub	sp, #16
 8000c84:	af00      	add	r7, sp, #0
 8000c86:	6078      	str	r0, [r7, #4]
    if (!g_kernel.scheduler_running) {
 8000c88:	4b18      	ldr	r3, [pc, #96]	@ (8000cec <rtos_delay_until+0x6c>)
 8000c8a:	f893 3030 	ldrb.w	r3, [r3, #48]	@ 0x30
 8000c8e:	2b00      	cmp	r3, #0
 8000c90:	d028      	beq.n	8000ce4 <rtos_delay_until+0x64>
        return;
    }

    uint32_t state = rtos_enter_critical();
 8000c92:	f7ff fc6b 	bl	800056c <rtos_enter_critical>
 8000c96:	60f8      	str	r0, [r7, #12]

    /* Calculate ticks until wake */
    int32_t ticks = (int32_t)(wake_tick - g_kernel.tick_count);
 8000c98:	4b14      	ldr	r3, [pc, #80]	@ (8000cec <rtos_delay_until+0x6c>)
 8000c9a:	6adb      	ldr	r3, [r3, #44]	@ 0x2c
 8000c9c:	687a      	ldr	r2, [r7, #4]
 8000c9e:	1ad3      	subs	r3, r2, r3
 8000ca0:	60bb      	str	r3, [r7, #8]

    if (ticks > 0) {
 8000ca2:	68bb      	ldr	r3, [r7, #8]
 8000ca4:	2b00      	cmp	r3, #0
 8000ca6:	dd19      	ble.n	8000cdc <rtos_delay_until+0x5c>
        /* Remove from ready list if needed */
        if (g_kernel.current_task->state == RTOS_TASK_RUNNING) {
 8000ca8:	4b10      	ldr	r3, [pc, #64]	@ (8000cec <rtos_delay_until+0x6c>)
 8000caa:	6a5b      	ldr	r3, [r3, #36]	@ 0x24
 8000cac:	7b1b      	ldrb	r3, [r3, #12]
 8000cae:	2b01      	cmp	r3, #1
 8000cb0:	d103      	bne.n	8000cba <rtos_delay_until+0x3a>
            g_kernel.current_task->state = RTOS_TASK_BLOCKED;
 8000cb2:	4b0e      	ldr	r3, [pc, #56]	@ (8000cec <rtos_delay_until+0x6c>)
 8000cb4:	6a5b      	ldr	r3, [r3, #36]	@ 0x24
 8000cb6:	2202      	movs	r2, #2
 8000cb8:	731a      	strb	r2, [r3, #12]
        }

        /* Set absolute wake tick */
        g_kernel.current_task->wake_tick = wake_tick;
 8000cba:	4b0c      	ldr	r3, [pc, #48]	@ (8000cec <rtos_delay_until+0x6c>)
 8000cbc:	6a5b      	ldr	r3, [r3, #36]	@ 0x24
 8000cbe:	687a      	ldr	r2, [r7, #4]
 8000cc0:	611a      	str	r2, [r3, #16]

        /* Add to delay list */
        rtos_add_to_delay_list(g_kernel.current_task, ticks);
 8000cc2:	4b0a      	ldr	r3, [pc, #40]	@ (8000cec <rtos_delay_until+0x6c>)
 8000cc4:	6a5b      	ldr	r3, [r3, #36]	@ 0x24
 8000cc6:	68ba      	ldr	r2, [r7, #8]
 8000cc8:	4611      	mov	r1, r2
 8000cca:	4618      	mov	r0, r3
 8000ccc:	f7ff fde0 	bl	8000890 <rtos_add_to_delay_list>

        rtos_exit_critical(state);
 8000cd0:	68f8      	ldr	r0, [r7, #12]
 8000cd2:	f7ff fc58 	bl	8000586 <rtos_exit_critical>

        /* Trigger context switch */
        rtos_trigger_context_switch();
 8000cd6:	f7ff fbd3 	bl	8000480 <rtos_trigger_context_switch>
 8000cda:	e004      	b.n	8000ce6 <rtos_delay_until+0x66>
    } else {
        /* Already past wake time */
        rtos_exit_critical(state);
 8000cdc:	68f8      	ldr	r0, [r7, #12]
 8000cde:	f7ff fc52 	bl	8000586 <rtos_exit_critical>
 8000ce2:	e000      	b.n	8000ce6 <rtos_delay_until+0x66>
        return;
 8000ce4:	bf00      	nop
    }
}
 8000ce6:	3710      	adds	r7, #16
 8000ce8:	46bd      	mov	sp, r7
 8000cea:	bd80      	pop	{r7, pc}
 8000cec:	20000000 	.word	0x20000000

08000cf0 <rtos_task_suspend>:

/*---------------------------------------------------------------------------*/
/* Task Suspend/Resume */
/*---------------------------------------------------------------------------*/

rtos_status_t rtos_task_suspend(rtos_tcb_t *tcb) {
 8000cf0:	b580      	push	{r7, lr}
 8000cf2:	b084      	sub	sp, #16
 8000cf4:	af00      	add	r7, sp, #0
 8000cf6:	6078      	str	r0, [r7, #4]
    uint32_t state = rtos_enter_critical();
 8000cf8:	f7ff fc38 	bl	800056c <rtos_enter_critical>
 8000cfc:	60f8      	str	r0, [r7, #12]

    /* If NULL, suspend current task */
    if (tcb == NULL) {
 8000cfe:	687b      	ldr	r3, [r7, #4]
 8000d00:	2b00      	cmp	r3, #0
 8000d02:	d102      	bne.n	8000d0a <rtos_task_suspend+0x1a>
        tcb = g_kernel.current_task;
 8000d04:	4b1d      	ldr	r3, [pc, #116]	@ (8000d7c <rtos_task_suspend+0x8c>)
 8000d06:	6a5b      	ldr	r3, [r3, #36]	@ 0x24
 8000d08:	607b      	str	r3, [r7, #4]
    }

    if (tcb == NULL) {
 8000d0a:	687b      	ldr	r3, [r7, #4]
 8000d0c:	2b00      	cmp	r3, #0
 8000d0e:	d105      	bne.n	8000d1c <rtos_task_suspend+0x2c>
        rtos_exit_critical(state);
 8000d10:	68f8      	ldr	r0, [r7, #12]
 8000d12:	f7ff fc38 	bl	8000586 <rtos_exit_critical>
        return RTOS_ERR_PARAM;
 8000d16:	f04f 33ff 	mov.w	r3, #4294967295	@ 0xffffffff
 8000d1a:	e02a      	b.n	8000d72 <rtos_task_suspend+0x82>
    }

    /* Can't suspend if already suspended */
    if (tcb->state == RTOS_TASK_SUSPENDED) {
 8000d1c:	687b      	ldr	r3, [r7, #4]
 8000d1e:	7b1b      	ldrb	r3, [r3, #12]
 8000d20:	2b03      	cmp	r3, #3
 8000d22:	d105      	bne.n	8000d30 <rtos_task_suspend+0x40>
        rtos_exit_critical(state);
 8000d24:	68f8      	ldr	r0, [r7, #12]
 8000d26:	f7ff fc2e 	bl	8000586 <rtos_exit_critical>
        return RTOS_ERR_STATE;
 8000d2a:	f06f 0303 	mvn.w	r3, #3
 8000d2e:	e020      	b.n	8000d72 <rtos_task_suspend+0x82>
    }

    /* Remove from ready list if it's there */
    if (tcb->state == RTOS_TASK_READY) {
 8000d30:	687b      	ldr	r3, [r7, #4]
 8000d32:	7b1b      	ldrb	r3, [r3, #12]
 8000d34:	2b00      	cmp	r3, #0
 8000d36:	d102      	bne.n	8000d3e <rtos_task_suspend+0x4e>
        rtos_remove_ready(tcb);
 8000d38:	6878      	ldr	r0, [r7, #4]
 8000d3a:	f7ff fd63 	bl	8000804 <rtos_remove_ready>
    }

    /* Remove from delay list if blocked on delay */
    if (tcb->state == RTOS_TASK_BLOCKED && tcb->wait_object == NULL) {
 8000d3e:	687b      	ldr	r3, [r7, #4]
 8000d40:	7b1b      	ldrb	r3, [r3, #12]
 8000d42:	2b02      	cmp	r3, #2
 8000d44:	d107      	bne.n	8000d56 <rtos_task_suspend+0x66>
 8000d46:	687b      	ldr	r3, [r7, #4]
 8000d48:	6b5b      	ldr	r3, [r3, #52]	@ 0x34
 8000d4a:	2b00      	cmp	r3, #0
 8000d4c:	d103      	bne.n	8000d56 <rtos_task_suspend+0x66>
        rtos_list_remove(&g_kernel.delay_list, tcb);
 8000d4e:	6879      	ldr	r1, [r7, #4]
 8000d50:	480b      	ldr	r0, [pc, #44]	@ (8000d80 <rtos_task_suspend+0x90>)
 8000d52:	f7ff fce0 	bl	8000716 <rtos_list_remove>
    }

    tcb->state = RTOS_TASK_SUSPENDED;
 8000d56:	687b      	ldr	r3, [r7, #4]
 8000d58:	2203      	movs	r2, #3
 8000d5a:	731a      	strb	r2, [r3, #12]

    rtos_exit_critical(state);
 8000d5c:	68f8      	ldr	r0, [r7, #12]
 8000d5e:	f7ff fc12 	bl	8000586 <rtos_exit_critical>

    /* If we suspended ourselves, yield */
    if (tcb == g_kernel.current_task) {
 8000d62:	4b06      	ldr	r3, [pc, #24]	@ (8000d7c <rtos_task_suspend+0x8c>)
 8000d64:	6a5b      	ldr	r3, [r3, #36]	@ 0x24
 8000d66:	687a      	ldr	r2, [r7, #4]
 8000d68:	429a      	cmp	r2, r3
 8000d6a:	d101      	bne.n	8000d70 <rtos_task_suspend+0x80>
        rtos_trigger_context_switch();
 8000d6c:	f7ff fb88 	bl	8000480 <rtos_trigger_context_switch>
    }

    return RTOS_OK;
 8000d70:	2300      	movs	r3, #0
}
 8000d72:	4618      	mov	r0, r3
 8000d74:	3710      	adds	r7, #16
 8000d76:	46bd      	mov	sp, r7
 8000d78:	bd80      	pop	{r7, pc}
 8000d7a:	bf00      	nop
 8000d7c:	20000000 	.word	0x20000000
 8000d80:	20000034 	.word	0x20000034

08000d84 <block_on_wait_list>:

/*---------------------------------------------------------------------------*/
/* Helper: Block Current Task on Wait List */
/*---------------------------------------------------------------------------*/
static rtos_status_t block_on_wait_list(rtos_list_t *wait_list, void *wait_obj,
                                         uint32_t timeout_ms) {
 8000d84:	b580      	push	{r7, lr}
 8000d86:	b086      	sub	sp, #24
 8000d88:	af00      	add	r7, sp, #0
 8000d8a:	60f8      	str	r0, [r7, #12]
 8000d8c:	60b9      	str	r1, [r7, #8]
 8000d8e:	607a      	str	r2, [r7, #4]
    rtos_tcb_t *current = g_kernel.current_task;
 8000d90:	4b17      	ldr	r3, [pc, #92]	@ (8000df0 <block_on_wait_list+0x6c>)
 8000d92:	6a5b      	ldr	r3, [r3, #36]	@ 0x24
 8000d94:	613b      	str	r3, [r7, #16]

    /* Add to wait list (priority sorted for fair scheduling) */
    rtos_list_add_priority(wait_list, current);
 8000d96:	6939      	ldr	r1, [r7, #16]
 8000d98:	68f8      	ldr	r0, [r7, #12]
 8000d9a:	f7ff fc73 	bl	8000684 <rtos_list_add_priority>

    current->state = RTOS_TASK_BLOCKED;
 8000d9e:	693b      	ldr	r3, [r7, #16]
 8000da0:	2202      	movs	r2, #2
 8000da2:	731a      	strb	r2, [r3, #12]
    current->wait_object = wait_obj;
 8000da4:	693b      	ldr	r3, [r7, #16]
 8000da6:	68ba      	ldr	r2, [r7, #8]
 8000da8:	635a      	str	r2, [r3, #52]	@ 0x34

    if (timeout_ms != RTOS_WAIT_FOREVER) {
 8000daa:	687b      	ldr	r3, [r7, #4]
 8000dac:	f1b3 3fff 	cmp.w	r3, #4294967295	@ 0xffffffff
 8000db0:	d015      	beq.n	8000dde <block_on_wait_list+0x5a>
        /* Add to delay list for timeout */
        uint32_t ticks = (timeout_ms * RTOS_TICK_RATE_HZ) / 1000;
 8000db2:	687b      	ldr	r3, [r7, #4]
 8000db4:	f44f 727a 	mov.w	r2, #1000	@ 0x3e8
 8000db8:	fb02 f303 	mul.w	r3, r2, r3
 8000dbc:	4a0d      	ldr	r2, [pc, #52]	@ (8000df4 <block_on_wait_list+0x70>)
 8000dbe:	fba2 2303 	umull	r2, r3, r2, r3
 8000dc2:	099b      	lsrs	r3, r3, #6
 8000dc4:	617b      	str	r3, [r7, #20]
        if (ticks == 0) ticks = 1;
 8000dc6:	697b      	ldr	r3, [r7, #20]
 8000dc8:	2b00      	cmp	r3, #0
 8000dca:	d101      	bne.n	8000dd0 <block_on_wait_list+0x4c>
 8000dcc:	2301      	movs	r3, #1
 8000dce:	617b      	str	r3, [r7, #20]
        current->wake_tick = g_kernel.tick_count + ticks;
 8000dd0:	4b07      	ldr	r3, [pc, #28]	@ (8000df0 <block_on_wait_list+0x6c>)
 8000dd2:	6ada      	ldr	r2, [r3, #44]	@ 0x2c
 8000dd4:	697b      	ldr	r3, [r7, #20]
 8000dd6:	441a      	add	r2, r3
 8000dd8:	693b      	ldr	r3, [r7, #16]
 8000dda:	611a      	str	r2, [r3, #16]
 8000ddc:	e002      	b.n	8000de4 <block_on_wait_list+0x60>
    } else {
        current->wake_tick = 0;  /* No timeout */
 8000dde:	693b      	ldr	r3, [r7, #16]
 8000de0:	2200      	movs	r2, #0
 8000de2:	611a      	str	r2, [r3, #16]
    }

    return RTOS_OK;
 8000de4:	2300      	movs	r3, #0
}
 8000de6:	4618      	mov	r0, r3
 8000de8:	3718      	adds	r7, #24
 8000dea:	46bd      	mov	sp, r7
 8000dec:	bd80      	pop	{r7, pc}
 8000dee:	bf00      	nop
 8000df0:	20000000 	.word	0x20000000
 8000df4:	10624dd3 	.word	0x10624dd3

08000df8 <wake_highest_priority_waiter>:

/*---------------------------------------------------------------------------*/
/* Helper: Wake Task from Wait List */
/*---------------------------------------------------------------------------*/
static rtos_tcb_t *wake_highest_priority_waiter(rtos_list_t *wait_list) {
 8000df8:	b580      	push	{r7, lr}
 8000dfa:	b084      	sub	sp, #16
 8000dfc:	af00      	add	r7, sp, #0
 8000dfe:	6078      	str	r0, [r7, #4]
    rtos_tcb_t *tcb = rtos_list_pop_head(wait_list);
 8000e00:	6878      	ldr	r0, [r7, #4]
 8000e02:	f7ff fcb4 	bl	800076e <rtos_list_pop_head>
 8000e06:	60f8      	str	r0, [r7, #12]

    if (tcb != NULL) {
 8000e08:	68fb      	ldr	r3, [r7, #12]
 8000e0a:	2b00      	cmp	r3, #0
 8000e0c:	d00d      	beq.n	8000e2a <wake_highest_priority_waiter+0x32>
        /* Remove from delay list if it was there */
        if (tcb->wake_tick != 0) {
 8000e0e:	68fb      	ldr	r3, [r7, #12]
 8000e10:	691b      	ldr	r3, [r3, #16]
 8000e12:	2b00      	cmp	r3, #0
 8000e14:	d003      	beq.n	8000e1e <wake_highest_priority_waiter+0x26>
            rtos_list_remove(&g_kernel.delay_list, tcb);
 8000e16:	68f9      	ldr	r1, [r7, #12]
 8000e18:	4806      	ldr	r0, [pc, #24]	@ (8000e34 <wake_highest_priority_waiter+0x3c>)
 8000e1a:	f7ff fc7c 	bl	8000716 <rtos_list_remove>
        }

        tcb->wait_object = NULL;
 8000e1e:	68fb      	ldr	r3, [r7, #12]
 8000e20:	2200      	movs	r2, #0
 8000e22:	635a      	str	r2, [r3, #52]	@ 0x34
        rtos_add_ready(tcb);
 8000e24:	68f8      	ldr	r0, [r7, #12]
 8000e26:	f7ff fcc9 	bl	80007bc <rtos_add_ready>
    }

    return tcb;
 8000e2a:	68fb      	ldr	r3, [r7, #12]
}
 8000e2c:	4618      	mov	r0, r3
 8000e2e:	3710      	adds	r7, #16
 8000e30:	46bd      	mov	sp, r7
 8000e32:	bd80      	pop	{r7, pc}
 8000e34:	20000034 	.word	0x20000034

08000e38 <rtos_sem_init>:

/*---------------------------------------------------------------------------*/
/* Binary Semaphore */
/*---------------------------------------------------------------------------*/

rtos_status_t rtos_sem_init(rtos_sem_t *sem, uint32_t initial) {
 8000e38:	b580      	push	{r7, lr}
 8000e3a:	b082      	sub	sp, #8
 8000e3c:	af00      	add	r7, sp, #0
 8000e3e:	6078      	str	r0, [r7, #4]
 8000e40:	6039      	str	r1, [r7, #0]
    if (sem == NULL) {
 8000e42:	687b      	ldr	r3, [r7, #4]
 8000e44:	2b00      	cmp	r3, #0
 8000e46:	d102      	bne.n	8000e4e <rtos_sem_init+0x16>
        return RTOS_ERR_PARAM;
 8000e48:	f04f 33ff 	mov.w	r3, #4294967295	@ 0xffffffff
 8000e4c:	e00e      	b.n	8000e6c <rtos_sem_init+0x34>
    }

    sem->count = initial ? 1 : 0;
 8000e4e:	683b      	ldr	r3, [r7, #0]
 8000e50:	2b00      	cmp	r3, #0
 8000e52:	bf14      	ite	ne
 8000e54:	2301      	movne	r3, #1
 8000e56:	2300      	moveq	r3, #0
 8000e58:	b2db      	uxtb	r3, r3
 8000e5a:	461a      	mov	r2, r3
 8000e5c:	687b      	ldr	r3, [r7, #4]
 8000e5e:	601a      	str	r2, [r3, #0]
    rtos_list_init(&sem->wait_list);
 8000e60:	687b      	ldr	r3, [r7, #4]
 8000e62:	3304      	adds	r3, #4
 8000e64:	4618      	mov	r0, r3
 8000e66:	f7ff fbae 	bl	80005c6 <rtos_list_init>

    return RTOS_OK;
 8000e6a:	2300      	movs	r3, #0
}
 8000e6c:	4618      	mov	r0, r3
 8000e6e:	3708      	adds	r7, #8
 8000e70:	46bd      	mov	sp, r7
 8000e72:	bd80      	pop	{r7, pc}

08000e74 <rtos_mutex_init>:

/*---------------------------------------------------------------------------*/
/* Mutex with Priority Inheritance */
/*---------------------------------------------------------------------------*/

rtos_status_t rtos_mutex_init(rtos_mutex_t *mtx) {
 8000e74:	b580      	push	{r7, lr}
 8000e76:	b082      	sub	sp, #8
 8000e78:	af00      	add	r7, sp, #0
 8000e7a:	6078      	str	r0, [r7, #4]
    if (mtx == NULL) {
 8000e7c:	687b      	ldr	r3, [r7, #4]
 8000e7e:	2b00      	cmp	r3, #0
 8000e80:	d102      	bne.n	8000e88 <rtos_mutex_init+0x14>
        return RTOS_ERR_PARAM;
 8000e82:	f04f 33ff 	mov.w	r3, #4294967295	@ 0xffffffff
 8000e86:	e00e      	b.n	8000ea6 <rtos_mutex_init+0x32>
    }

    mtx->owner = NULL;
 8000e88:	687b      	ldr	r3, [r7, #4]
 8000e8a:	2200      	movs	r2, #0
 8000e8c:	601a      	str	r2, [r3, #0]
    mtx->original_priority = 0;
 8000e8e:	687b      	ldr	r3, [r7, #4]
 8000e90:	2200      	movs	r2, #0
 8000e92:	711a      	strb	r2, [r3, #4]
    mtx->lock_count = 0;
 8000e94:	687b      	ldr	r3, [r7, #4]
 8000e96:	2200      	movs	r2, #0
 8000e98:	715a      	strb	r2, [r3, #5]
    rtos_list_init(&mtx->wait_list);
 8000e9a:	687b      	ldr	r3, [r7, #4]
 8000e9c:	3308      	adds	r3, #8
 8000e9e:	4618      	mov	r0, r3
 8000ea0:	f7ff fb91 	bl	80005c6 <rtos_list_init>

    return RTOS_OK;
 8000ea4:	2300      	movs	r3, #0
}
 8000ea6:	4618      	mov	r0, r3
 8000ea8:	3708      	adds	r7, #8
 8000eaa:	46bd      	mov	sp, r7
 8000eac:	bd80      	pop	{r7, pc}
	...

08000eb0 <rtos_mutex_lock>:

rtos_status_t rtos_mutex_lock(rtos_mutex_t *mtx, uint32_t timeout_ms) {
 8000eb0:	b580      	push	{r7, lr}
 8000eb2:	b086      	sub	sp, #24
 8000eb4:	af00      	add	r7, sp, #0
 8000eb6:	6078      	str	r0, [r7, #4]
 8000eb8:	6039      	str	r1, [r7, #0]
    if (mtx == NULL) {
 8000eba:	687b      	ldr	r3, [r7, #4]
 8000ebc:	2b00      	cmp	r3, #0
 8000ebe:	d102      	bne.n	8000ec6 <rtos_mutex_lock+0x16>
        return RTOS_ERR_PARAM;
 8000ec0:	f04f 33ff 	mov.w	r3, #4294967295	@ 0xffffffff
 8000ec4:	e079      	b.n	8000fba <rtos_mutex_lock+0x10a>
    }

    uint32_t state = rtos_enter_critical();
 8000ec6:	f7ff fb51 	bl	800056c <rtos_enter_critical>
 8000eca:	6138      	str	r0, [r7, #16]

    rtos_tcb_t *current = g_kernel.current_task;
 8000ecc:	4b3d      	ldr	r3, [pc, #244]	@ (8000fc4 <rtos_mutex_lock+0x114>)
 8000ece:	6a5b      	ldr	r3, [r3, #36]	@ 0x24
 8000ed0:	60fb      	str	r3, [r7, #12]

    /* Check if mutex is free */
    if (mtx->owner == NULL) {
 8000ed2:	687b      	ldr	r3, [r7, #4]
 8000ed4:	681b      	ldr	r3, [r3, #0]
 8000ed6:	2b00      	cmp	r3, #0
 8000ed8:	d10f      	bne.n	8000efa <rtos_mutex_lock+0x4a>
        /* Acquire mutex */
        mtx->owner = current;
 8000eda:	687b      	ldr	r3, [r7, #4]
 8000edc:	68fa      	ldr	r2, [r7, #12]
 8000ede:	601a      	str	r2, [r3, #0]
        mtx->original_priority = current->priority;
 8000ee0:	68fb      	ldr	r3, [r7, #12]
 8000ee2:	685b      	ldr	r3, [r3, #4]
 8000ee4:	b2da      	uxtb	r2, r3
 8000ee6:	687b      	ldr	r3, [r7, #4]
 8000ee8:	711a      	strb	r2, [r3, #4]
        mtx->lock_count = 1;
 8000eea:	687b      	ldr	r3, [r7, #4]
 8000eec:	2201      	movs	r2, #1
 8000eee:	715a      	strb	r2, [r3, #5]
        rtos_exit_critical(state);
 8000ef0:	6938      	ldr	r0, [r7, #16]
 8000ef2:	f7ff fb48 	bl	8000586 <rtos_exit_critical>
        return RTOS_OK;
 8000ef6:	2300      	movs	r3, #0
 8000ef8:	e05f      	b.n	8000fba <rtos_mutex_lock+0x10a>
    }

    /* Check for recursive lock */
    if (mtx->owner == current) {
 8000efa:	687b      	ldr	r3, [r7, #4]
 8000efc:	681b      	ldr	r3, [r3, #0]
 8000efe:	68fa      	ldr	r2, [r7, #12]
 8000f00:	429a      	cmp	r2, r3
 8000f02:	d10a      	bne.n	8000f1a <rtos_mutex_lock+0x6a>
        mtx->lock_count++;
 8000f04:	687b      	ldr	r3, [r7, #4]
 8000f06:	795b      	ldrb	r3, [r3, #5]
 8000f08:	3301      	adds	r3, #1
 8000f0a:	b2da      	uxtb	r2, r3
 8000f0c:	687b      	ldr	r3, [r7, #4]
 8000f0e:	715a      	strb	r2, [r3, #5]
        rtos_exit_critical(state);
 8000f10:	6938      	ldr	r0, [r7, #16]
 8000f12:	f7ff fb38 	bl	8000586 <rtos_exit_critical>
        return RTOS_OK;
 8000f16:	2300      	movs	r3, #0
 8000f18:	e04f      	b.n	8000fba <rtos_mutex_lock+0x10a>
    }

    /* Mutex is owned by another task */
    if (timeout_ms == RTOS_NO_WAIT) {
 8000f1a:	683b      	ldr	r3, [r7, #0]
 8000f1c:	2b00      	cmp	r3, #0
 8000f1e:	d105      	bne.n	8000f2c <rtos_mutex_lock+0x7c>
        rtos_exit_critical(state);
 8000f20:	6938      	ldr	r0, [r7, #16]
 8000f22:	f7ff fb30 	bl	8000586 <rtos_exit_critical>
        return RTOS_ERR_RESOURCE;
 8000f26:	f06f 0302 	mvn.w	r3, #2
 8000f2a:	e046      	b.n	8000fba <rtos_mutex_lock+0x10a>
    }

#if RTOS_ENABLE_PRIORITY_INHERITANCE
    /* Priority inheritance: boost owner's priority if needed */
    if (current->priority < mtx->owner->priority) {
 8000f2c:	68fb      	ldr	r3, [r7, #12]
 8000f2e:	685a      	ldr	r2, [r3, #4]
 8000f30:	687b      	ldr	r3, [r7, #4]
 8000f32:	681b      	ldr	r3, [r3, #0]
 8000f34:	685b      	ldr	r3, [r3, #4]
 8000f36:	429a      	cmp	r2, r3
 8000f38:	d215      	bcs.n	8000f66 <rtos_mutex_lock+0xb6>
        /* Current task has higher priority (lower number) */
        /* Boost owner's priority */
        rtos_tcb_t *owner = mtx->owner;
 8000f3a:	687b      	ldr	r3, [r7, #4]
 8000f3c:	681b      	ldr	r3, [r3, #0]
 8000f3e:	60bb      	str	r3, [r7, #8]

        /* Remove owner from ready list at old priority */
        if (owner->state == RTOS_TASK_READY) {
 8000f40:	68bb      	ldr	r3, [r7, #8]
 8000f42:	7b1b      	ldrb	r3, [r3, #12]
 8000f44:	2b00      	cmp	r3, #0
 8000f46:	d10a      	bne.n	8000f5e <rtos_mutex_lock+0xae>
            rtos_remove_ready(owner);
 8000f48:	68b8      	ldr	r0, [r7, #8]
 8000f4a:	f7ff fc5b 	bl	8000804 <rtos_remove_ready>
            owner->priority = current->priority;
 8000f4e:	68fb      	ldr	r3, [r7, #12]
 8000f50:	685a      	ldr	r2, [r3, #4]
 8000f52:	68bb      	ldr	r3, [r7, #8]
 8000f54:	605a      	str	r2, [r3, #4]
            rtos_add_ready(owner);
 8000f56:	68b8      	ldr	r0, [r7, #8]
 8000f58:	f7ff fc30 	bl	80007bc <rtos_add_ready>
 8000f5c:	e003      	b.n	8000f66 <rtos_mutex_lock+0xb6>
        } else {
            owner->priority = current->priority;
 8000f5e:	68fb      	ldr	r3, [r7, #12]
 8000f60:	685a      	ldr	r2, [r3, #4]
 8000f62:	68bb      	ldr	r3, [r7, #8]
 8000f64:	605a      	str	r2, [r3, #4]
        }
    }
#endif

    /* Block current task */
    block_on_wait_list(&mtx->wait_list, mtx, timeout_ms);
 8000f66:	687b      	ldr	r3, [r7, #4]
 8000f68:	3308      	adds	r3, #8
 8000f6a:	683a      	ldr	r2, [r7, #0]
 8000f6c:	6879      	ldr	r1, [r7, #4]
 8000f6e:	4618      	mov	r0, r3
 8000f70:	f7ff ff08 	bl	8000d84 <block_on_wait_list>

    rtos_exit_critical(state);
 8000f74:	6938      	ldr	r0, [r7, #16]
 8000f76:	f7ff fb06 	bl	8000586 <rtos_exit_critical>

    /* Trigger context switch */
    rtos_trigger_context_switch();
 8000f7a:	f7ff fa81 	bl	8000480 <rtos_trigger_context_switch>

    /* When we wake up, check result */
    state = rtos_enter_critical();
 8000f7e:	f7ff faf5 	bl	800056c <rtos_enter_critical>
 8000f82:	6138      	str	r0, [r7, #16]

    rtos_status_t result = RTOS_OK;
 8000f84:	2300      	movs	r3, #0
 8000f86:	75fb      	strb	r3, [r7, #23]

    if (g_kernel.current_task->wait_object == mtx) {
 8000f88:	4b0e      	ldr	r3, [pc, #56]	@ (8000fc4 <rtos_mutex_lock+0x114>)
 8000f8a:	6a5b      	ldr	r3, [r3, #36]	@ 0x24
 8000f8c:	6b5b      	ldr	r3, [r3, #52]	@ 0x34
 8000f8e:	687a      	ldr	r2, [r7, #4]
 8000f90:	429a      	cmp	r2, r3
 8000f92:	d10d      	bne.n	8000fb0 <rtos_mutex_lock+0x100>
        /* Still on wait list = timed out */
        rtos_list_remove(&mtx->wait_list, g_kernel.current_task);
 8000f94:	687b      	ldr	r3, [r7, #4]
 8000f96:	3308      	adds	r3, #8
 8000f98:	4a0a      	ldr	r2, [pc, #40]	@ (8000fc4 <rtos_mutex_lock+0x114>)
 8000f9a:	6a52      	ldr	r2, [r2, #36]	@ 0x24
 8000f9c:	4611      	mov	r1, r2
 8000f9e:	4618      	mov	r0, r3
 8000fa0:	f7ff fbb9 	bl	8000716 <rtos_list_remove>
        g_kernel.current_task->wait_object = NULL;
 8000fa4:	4b07      	ldr	r3, [pc, #28]	@ (8000fc4 <rtos_mutex_lock+0x114>)
 8000fa6:	6a5b      	ldr	r3, [r3, #36]	@ 0x24
 8000fa8:	2200      	movs	r2, #0
 8000faa:	635a      	str	r2, [r3, #52]	@ 0x34
        result = RTOS_ERR_TIMEOUT;
 8000fac:	23fe      	movs	r3, #254	@ 0xfe
 8000fae:	75fb      	strb	r3, [r7, #23]
    }

    rtos_exit_critical(state);
 8000fb0:	6938      	ldr	r0, [r7, #16]
 8000fb2:	f7ff fae8 	bl	8000586 <rtos_exit_critical>

    return result;
 8000fb6:	f997 3017 	ldrsb.w	r3, [r7, #23]
}
 8000fba:	4618      	mov	r0, r3
 8000fbc:	3718      	adds	r7, #24
 8000fbe:	46bd      	mov	sp, r7
 8000fc0:	bd80      	pop	{r7, pc}
 8000fc2:	bf00      	nop
 8000fc4:	20000000 	.word	0x20000000

08000fc8 <rtos_mutex_unlock>:

rtos_status_t rtos_mutex_unlock(rtos_mutex_t *mtx) {
 8000fc8:	b580      	push	{r7, lr}
 8000fca:	b086      	sub	sp, #24
 8000fcc:	af00      	add	r7, sp, #0
 8000fce:	6078      	str	r0, [r7, #4]
    if (mtx == NULL) {
 8000fd0:	687b      	ldr	r3, [r7, #4]
 8000fd2:	2b00      	cmp	r3, #0
 8000fd4:	d102      	bne.n	8000fdc <rtos_mutex_unlock+0x14>
        return RTOS_ERR_PARAM;
 8000fd6:	f04f 33ff 	mov.w	r3, #4294967295	@ 0xffffffff
 8000fda:	e07d      	b.n	80010d8 <rtos_mutex_unlock+0x110>
    }

    uint32_t state = rtos_enter_critical();
 8000fdc:	f7ff fac6 	bl	800056c <rtos_enter_critical>
 8000fe0:	6178      	str	r0, [r7, #20]

    rtos_tcb_t *current = g_kernel.current_task;
 8000fe2:	4b3f      	ldr	r3, [pc, #252]	@ (80010e0 <rtos_mutex_unlock+0x118>)
 8000fe4:	6a5b      	ldr	r3, [r3, #36]	@ 0x24
 8000fe6:	613b      	str	r3, [r7, #16]

    /* Check if we own the mutex */
    if (mtx->owner != current) {
 8000fe8:	687b      	ldr	r3, [r7, #4]
 8000fea:	681b      	ldr	r3, [r3, #0]
 8000fec:	693a      	ldr	r2, [r7, #16]
 8000fee:	429a      	cmp	r2, r3
 8000ff0:	d005      	beq.n	8000ffe <rtos_mutex_unlock+0x36>
        rtos_exit_critical(state);
 8000ff2:	6978      	ldr	r0, [r7, #20]
 8000ff4:	f7ff fac7 	bl	8000586 <rtos_exit_critical>
        return RTOS_ERR_STATE;
 8000ff8:	f06f 0303 	mvn.w	r3, #3
 8000ffc:	e06c      	b.n	80010d8 <rtos_mutex_unlock+0x110>
    }

    /* Decrement lock count for recursive mutex */
    mtx->lock_count--;
 8000ffe:	687b      	ldr	r3, [r7, #4]
 8001000:	795b      	ldrb	r3, [r3, #5]
 8001002:	3b01      	subs	r3, #1
 8001004:	b2da      	uxtb	r2, r3
 8001006:	687b      	ldr	r3, [r7, #4]
 8001008:	715a      	strb	r2, [r3, #5]
    if (mtx->lock_count > 0) {
 800100a:	687b      	ldr	r3, [r7, #4]
 800100c:	795b      	ldrb	r3, [r3, #5]
 800100e:	2b00      	cmp	r3, #0
 8001010:	d004      	beq.n	800101c <rtos_mutex_unlock+0x54>
        rtos_exit_critical(state);
 8001012:	6978      	ldr	r0, [r7, #20]
 8001014:	f7ff fab7 	bl	8000586 <rtos_exit_critical>
        return RTOS_OK;
 8001018:	2300      	movs	r3, #0
 800101a:	e05d      	b.n	80010d8 <rtos_mutex_unlock+0x110>
    }

#if RTOS_ENABLE_PRIORITY_INHERITANCE
    /* Restore original priority */
    if (current->priority != mtx->original_priority) {
 800101c:	693b      	ldr	r3, [r7, #16]
 800101e:	685b      	ldr	r3, [r3, #4]
 8001020:	687a      	ldr	r2, [r7, #4]
 8001022:	7912      	ldrb	r2, [r2, #4]
 8001024:	4293      	cmp	r3, r2
 8001026:	d014      	beq.n	8001052 <rtos_mutex_unlock+0x8a>
        /* Remove from ready list at boosted priority */
        if (current->state == RTOS_TASK_READY) {
 8001028:	693b      	ldr	r3, [r7, #16]
 800102a:	7b1b      	ldrb	r3, [r3, #12]
 800102c:	2b00      	cmp	r3, #0
 800102e:	d10b      	bne.n	8001048 <rtos_mutex_unlock+0x80>
            rtos_remove_ready(current);
 8001030:	6938      	ldr	r0, [r7, #16]
 8001032:	f7ff fbe7 	bl	8000804 <rtos_remove_ready>
            current->priority = mtx->original_priority;
 8001036:	687b      	ldr	r3, [r7, #4]
 8001038:	791b      	ldrb	r3, [r3, #4]
 800103a:	461a      	mov	r2, r3
 800103c:	693b      	ldr	r3, [r7, #16]
 800103e:	605a      	str	r2, [r3, #4]
            rtos_add_ready(current);
 8001040:	6938      	ldr	r0, [r7, #16]
 8001042:	f7ff fbbb 	bl	80007bc <rtos_add_ready>
 8001046:	e004      	b.n	8001052 <rtos_mutex_unlock+0x8a>
        } else {
            current->priority = mtx->original_priority;
 8001048:	687b      	ldr	r3, [r7, #4]
 800104a:	791b      	ldrb	r3, [r3, #4]
 800104c:	461a      	mov	r2, r3
 800104e:	693b      	ldr	r3, [r7, #16]
 8001050:	605a      	str	r2, [r3, #4]
        }
    }
#endif

    /* Release mutex */
    mtx->owner = NULL;
 8001052:	687b      	ldr	r3, [r7, #4]
 8001054:	2200      	movs	r2, #0
 8001056:	601a      	str	r2, [r3, #0]

    /* Wake highest priority waiter if any */
    if (!rtos_list_is_empty(&mtx->wait_list)) {
 8001058:	687b      	ldr	r3, [r7, #4]
 800105a:	3308      	adds	r3, #8
 800105c:	4618      	mov	r0, r3
 800105e:	f7ff fac1 	bl	80005e4 <rtos_list_is_empty>
 8001062:	4603      	mov	r3, r0
 8001064:	2b00      	cmp	r3, #0
 8001066:	d133      	bne.n	80010d0 <rtos_mutex_unlock+0x108>
        rtos_tcb_t *woken = rtos_list_pop_head(&mtx->wait_list);
 8001068:	687b      	ldr	r3, [r7, #4]
 800106a:	3308      	adds	r3, #8
 800106c:	4618      	mov	r0, r3
 800106e:	f7ff fb7e 	bl	800076e <rtos_list_pop_head>
 8001072:	60f8      	str	r0, [r7, #12]

        if (woken != NULL) {
 8001074:	68fb      	ldr	r3, [r7, #12]
 8001076:	2b00      	cmp	r3, #0
 8001078:	d02a      	beq.n	80010d0 <rtos_mutex_unlock+0x108>
            /* Remove from delay list if necessary */
            if (woken->wake_tick != 0) {
 800107a:	68fb      	ldr	r3, [r7, #12]
 800107c:	691b      	ldr	r3, [r3, #16]
 800107e:	2b00      	cmp	r3, #0
 8001080:	d003      	beq.n	800108a <rtos_mutex_unlock+0xc2>
                rtos_list_remove(&g_kernel.delay_list, woken);
 8001082:	68f9      	ldr	r1, [r7, #12]
 8001084:	4817      	ldr	r0, [pc, #92]	@ (80010e4 <rtos_mutex_unlock+0x11c>)
 8001086:	f7ff fb46 	bl	8000716 <rtos_list_remove>
            }

            /* Transfer ownership to woken task */
            mtx->owner = woken;
 800108a:	687b      	ldr	r3, [r7, #4]
 800108c:	68fa      	ldr	r2, [r7, #12]
 800108e:	601a      	str	r2, [r3, #0]
            mtx->original_priority = woken->base_priority;
 8001090:	68fb      	ldr	r3, [r7, #12]
 8001092:	689b      	ldr	r3, [r3, #8]
 8001094:	b2da      	uxtb	r2, r3
 8001096:	687b      	ldr	r3, [r7, #4]
 8001098:	711a      	strb	r2, [r3, #4]
            mtx->lock_count = 1;
 800109a:	687b      	ldr	r3, [r7, #4]
 800109c:	2201      	movs	r2, #1
 800109e:	715a      	strb	r2, [r3, #5]

            woken->wait_object = NULL;
 80010a0:	68fb      	ldr	r3, [r7, #12]
 80010a2:	2200      	movs	r2, #0
 80010a4:	635a      	str	r2, [r3, #52]	@ 0x34
            rtos_add_ready(woken);
 80010a6:	68f8      	ldr	r0, [r7, #12]
 80010a8:	f7ff fb88 	bl	80007bc <rtos_add_ready>

            rtos_exit_critical(state);
 80010ac:	6978      	ldr	r0, [r7, #20]
 80010ae:	f7ff fa6a 	bl	8000586 <rtos_exit_critical>

            /* Yield if woken task has higher priority */
            if (g_kernel.scheduler_running &&
 80010b2:	4b0b      	ldr	r3, [pc, #44]	@ (80010e0 <rtos_mutex_unlock+0x118>)
 80010b4:	f893 3030 	ldrb.w	r3, [r3, #48]	@ 0x30
 80010b8:	2b00      	cmp	r3, #0
 80010ba:	d007      	beq.n	80010cc <rtos_mutex_unlock+0x104>
                woken->priority < current->priority) {
 80010bc:	68fb      	ldr	r3, [r7, #12]
 80010be:	685a      	ldr	r2, [r3, #4]
 80010c0:	693b      	ldr	r3, [r7, #16]
 80010c2:	685b      	ldr	r3, [r3, #4]
            if (g_kernel.scheduler_running &&
 80010c4:	429a      	cmp	r2, r3
 80010c6:	d201      	bcs.n	80010cc <rtos_mutex_unlock+0x104>
                rtos_trigger_context_switch();
 80010c8:	f7ff f9da 	bl	8000480 <rtos_trigger_context_switch>
            }

            return RTOS_OK;
 80010cc:	2300      	movs	r3, #0
 80010ce:	e003      	b.n	80010d8 <rtos_mutex_unlock+0x110>
        }
    }

    rtos_exit_critical(state);
 80010d0:	6978      	ldr	r0, [r7, #20]
 80010d2:	f7ff fa58 	bl	8000586 <rtos_exit_critical>
    return RTOS_OK;
 80010d6:	2300      	movs	r3, #0
}
 80010d8:	4618      	mov	r0, r3
 80010da:	3718      	adds	r7, #24
 80010dc:	46bd      	mov	sp, r7
 80010de:	bd80      	pop	{r7, pc}
 80010e0:	20000000 	.word	0x20000000
 80010e4:	20000034 	.word	0x20000034

080010e8 <rtos_queue_init>:
/*---------------------------------------------------------------------------*/
/* Message Queue */
/*---------------------------------------------------------------------------*/

rtos_status_t rtos_queue_init(rtos_queue_t *q, void *buffer,
                               uint32_t msg_size, uint32_t capacity) {
 80010e8:	b580      	push	{r7, lr}
 80010ea:	b084      	sub	sp, #16
 80010ec:	af00      	add	r7, sp, #0
 80010ee:	60f8      	str	r0, [r7, #12]
 80010f0:	60b9      	str	r1, [r7, #8]
 80010f2:	607a      	str	r2, [r7, #4]
 80010f4:	603b      	str	r3, [r7, #0]
    if (q == NULL || buffer == NULL || msg_size == 0 || capacity == 0) {
 80010f6:	68fb      	ldr	r3, [r7, #12]
 80010f8:	2b00      	cmp	r3, #0
 80010fa:	d008      	beq.n	800110e <rtos_queue_init+0x26>
 80010fc:	68bb      	ldr	r3, [r7, #8]
 80010fe:	2b00      	cmp	r3, #0
 8001100:	d005      	beq.n	800110e <rtos_queue_init+0x26>
 8001102:	687b      	ldr	r3, [r7, #4]
 8001104:	2b00      	cmp	r3, #0
 8001106:	d002      	beq.n	800110e <rtos_queue_init+0x26>
 8001108:	683b      	ldr	r3, [r7, #0]
 800110a:	2b00      	cmp	r3, #0
 800110c:	d102      	bne.n	8001114 <rtos_queue_init+0x2c>
        return RTOS_ERR_PARAM;
 800110e:	f04f 33ff 	mov.w	r3, #4294967295	@ 0xffffffff
 8001112:	e01c      	b.n	800114e <rtos_queue_init+0x66>
    }

    q->buffer = (uint8_t *)buffer;
 8001114:	68fb      	ldr	r3, [r7, #12]
 8001116:	68ba      	ldr	r2, [r7, #8]
 8001118:	601a      	str	r2, [r3, #0]
    q->msg_size = msg_size;
 800111a:	68fb      	ldr	r3, [r7, #12]
 800111c:	687a      	ldr	r2, [r7, #4]
 800111e:	605a      	str	r2, [r3, #4]
    q->capacity = capacity;
 8001120:	68fb      	ldr	r3, [r7, #12]
 8001122:	683a      	ldr	r2, [r7, #0]
 8001124:	609a      	str	r2, [r3, #8]
    q->head = 0;
 8001126:	68fb      	ldr	r3, [r7, #12]
 8001128:	2200      	movs	r2, #0
 800112a:	60da      	str	r2, [r3, #12]
    q->tail = 0;
 800112c:	68fb      	ldr	r3, [r7, #12]
 800112e:	2200      	movs	r2, #0
 8001130:	611a      	str	r2, [r3, #16]
    q->count = 0;
 8001132:	68fb      	ldr	r3, [r7, #12]
 8001134:	2200      	movs	r2, #0
 8001136:	615a      	str	r2, [r3, #20]
    rtos_list_init(&q->send_wait);
 8001138:	68fb      	ldr	r3, [r7, #12]
 800113a:	3318      	adds	r3, #24
 800113c:	4618      	mov	r0, r3
 800113e:	f7ff fa42 	bl	80005c6 <rtos_list_init>
    rtos_list_init(&q->recv_wait);
 8001142:	68fb      	ldr	r3, [r7, #12]
 8001144:	3320      	adds	r3, #32
 8001146:	4618      	mov	r0, r3
 8001148:	f7ff fa3d 	bl	80005c6 <rtos_list_init>

    return RTOS_OK;
 800114c:	2300      	movs	r3, #0
}
 800114e:	4618      	mov	r0, r3
 8001150:	3710      	adds	r7, #16
 8001152:	46bd      	mov	sp, r7
 8001154:	bd80      	pop	{r7, pc}
	...

08001158 <rtos_queue_send>:

rtos_status_t rtos_queue_send(rtos_queue_t *q, const void *msg, uint32_t timeout_ms) {
 8001158:	b580      	push	{r7, lr}
 800115a:	b086      	sub	sp, #24
 800115c:	af00      	add	r7, sp, #0
 800115e:	60f8      	str	r0, [r7, #12]
 8001160:	60b9      	str	r1, [r7, #8]
 8001162:	607a      	str	r2, [r7, #4]
    if (q == NULL || msg == NULL) {
 8001164:	68fb      	ldr	r3, [r7, #12]
 8001166:	2b00      	cmp	r3, #0
 8001168:	d002      	beq.n	8001170 <rtos_queue_send+0x18>
 800116a:	68bb      	ldr	r3, [r7, #8]
 800116c:	2b00      	cmp	r3, #0
 800116e:	d102      	bne.n	8001176 <rtos_queue_send+0x1e>
        return RTOS_ERR_PARAM;
 8001170:	f04f 33ff 	mov.w	r3, #4294967295	@ 0xffffffff
 8001174:	e0b1      	b.n	80012da <rtos_queue_send+0x182>
    }

    uint32_t state = rtos_enter_critical();
 8001176:	f7ff f9f9 	bl	800056c <rtos_enter_critical>
 800117a:	6178      	str	r0, [r7, #20]

    /* Check if queue has space */
    if (q->count < q->capacity) {
 800117c:	68fb      	ldr	r3, [r7, #12]
 800117e:	695a      	ldr	r2, [r3, #20]
 8001180:	68fb      	ldr	r3, [r7, #12]
 8001182:	689b      	ldr	r3, [r3, #8]
 8001184:	429a      	cmp	r2, r3
 8001186:	d248      	bcs.n	800121a <rtos_queue_send+0xc2>
        /* Copy message to queue */
        memcpy(&q->buffer[q->head * q->msg_size], msg, q->msg_size);
 8001188:	68fb      	ldr	r3, [r7, #12]
 800118a:	681a      	ldr	r2, [r3, #0]
 800118c:	68fb      	ldr	r3, [r7, #12]
 800118e:	68db      	ldr	r3, [r3, #12]
 8001190:	68f9      	ldr	r1, [r7, #12]
 8001192:	6849      	ldr	r1, [r1, #4]
 8001194:	fb01 f303 	mul.w	r3, r1, r3
 8001198:	18d0      	adds	r0, r2, r3
 800119a:	68fb      	ldr	r3, [r7, #12]
 800119c:	685b      	ldr	r3, [r3, #4]
 800119e:	461a      	mov	r2, r3
 80011a0:	68b9      	ldr	r1, [r7, #8]
 80011a2:	f7fe ff9b 	bl	80000dc <memcpy>
        q->head = (q->head + 1) % q->capacity;
 80011a6:	68fb      	ldr	r3, [r7, #12]
 80011a8:	68db      	ldr	r3, [r3, #12]
 80011aa:	3301      	adds	r3, #1
 80011ac:	68fa      	ldr	r2, [r7, #12]
 80011ae:	6892      	ldr	r2, [r2, #8]
 80011b0:	fbb3 f1f2 	udiv	r1, r3, r2
 80011b4:	fb01 f202 	mul.w	r2, r1, r2
 80011b8:	1a9a      	subs	r2, r3, r2
 80011ba:	68fb      	ldr	r3, [r7, #12]
 80011bc:	60da      	str	r2, [r3, #12]
        q->count++;
 80011be:	68fb      	ldr	r3, [r7, #12]
 80011c0:	695b      	ldr	r3, [r3, #20]
 80011c2:	1c5a      	adds	r2, r3, #1
 80011c4:	68fb      	ldr	r3, [r7, #12]
 80011c6:	615a      	str	r2, [r3, #20]

        /* Wake a waiting receiver if any */
        if (!rtos_list_is_empty(&q->recv_wait)) {
 80011c8:	68fb      	ldr	r3, [r7, #12]
 80011ca:	3320      	adds	r3, #32
 80011cc:	4618      	mov	r0, r3
 80011ce:	f7ff fa09 	bl	80005e4 <rtos_list_is_empty>
 80011d2:	4603      	mov	r3, r0
 80011d4:	2b00      	cmp	r3, #0
 80011d6:	d11b      	bne.n	8001210 <rtos_queue_send+0xb8>
            rtos_tcb_t *woken = wake_highest_priority_waiter(&q->recv_wait);
 80011d8:	68fb      	ldr	r3, [r7, #12]
 80011da:	3320      	adds	r3, #32
 80011dc:	4618      	mov	r0, r3
 80011de:	f7ff fe0b 	bl	8000df8 <wake_highest_priority_waiter>
 80011e2:	6138      	str	r0, [r7, #16]

            rtos_exit_critical(state);
 80011e4:	6978      	ldr	r0, [r7, #20]
 80011e6:	f7ff f9ce 	bl	8000586 <rtos_exit_critical>

            if (woken != NULL && g_kernel.scheduler_running &&
 80011ea:	693b      	ldr	r3, [r7, #16]
 80011ec:	2b00      	cmp	r3, #0
 80011ee:	d00d      	beq.n	800120c <rtos_queue_send+0xb4>
 80011f0:	4b3c      	ldr	r3, [pc, #240]	@ (80012e4 <rtos_queue_send+0x18c>)
 80011f2:	f893 3030 	ldrb.w	r3, [r3, #48]	@ 0x30
 80011f6:	2b00      	cmp	r3, #0
 80011f8:	d008      	beq.n	800120c <rtos_queue_send+0xb4>
                woken->priority < g_kernel.current_task->priority) {
 80011fa:	693b      	ldr	r3, [r7, #16]
 80011fc:	685a      	ldr	r2, [r3, #4]
 80011fe:	4b39      	ldr	r3, [pc, #228]	@ (80012e4 <rtos_queue_send+0x18c>)
 8001200:	6a5b      	ldr	r3, [r3, #36]	@ 0x24
 8001202:	685b      	ldr	r3, [r3, #4]
            if (woken != NULL && g_kernel.scheduler_running &&
 8001204:	429a      	cmp	r2, r3
 8001206:	d201      	bcs.n	800120c <rtos_queue_send+0xb4>
                rtos_trigger_context_switch();
 8001208:	f7ff f93a 	bl	8000480 <rtos_trigger_context_switch>
            }

            return RTOS_OK;
 800120c:	2300      	movs	r3, #0
 800120e:	e064      	b.n	80012da <rtos_queue_send+0x182>
        }

        rtos_exit_critical(state);
 8001210:	6978      	ldr	r0, [r7, #20]
 8001212:	f7ff f9b8 	bl	8000586 <rtos_exit_critical>
        return RTOS_OK;
 8001216:	2300      	movs	r3, #0
 8001218:	e05f      	b.n	80012da <rtos_queue_send+0x182>
    }

    /* Queue full */
    if (timeout_ms == RTOS_NO_WAIT) {
 800121a:	687b      	ldr	r3, [r7, #4]
 800121c:	2b00      	cmp	r3, #0
 800121e:	d105      	bne.n	800122c <rtos_queue_send+0xd4>
        rtos_exit_critical(state);
 8001220:	6978      	ldr	r0, [r7, #20]
 8001222:	f7ff f9b0 	bl	8000586 <rtos_exit_critical>
        return RTOS_ERR_RESOURCE;
 8001226:	f06f 0302 	mvn.w	r3, #2
 800122a:	e056      	b.n	80012da <rtos_queue_send+0x182>
    }

    /* Block on send wait list */
    block_on_wait_list(&q->send_wait, q, timeout_ms);
 800122c:	68fb      	ldr	r3, [r7, #12]
 800122e:	3318      	adds	r3, #24
 8001230:	687a      	ldr	r2, [r7, #4]
 8001232:	68f9      	ldr	r1, [r7, #12]
 8001234:	4618      	mov	r0, r3
 8001236:	f7ff fda5 	bl	8000d84 <block_on_wait_list>

    rtos_exit_critical(state);
 800123a:	6978      	ldr	r0, [r7, #20]
 800123c:	f7ff f9a3 	bl	8000586 <rtos_exit_critical>
    rtos_trigger_context_switch();
 8001240:	f7ff f91e 	bl	8000480 <rtos_trigger_context_switch>

    /* Check if we can send now or timed out */
    state = rtos_enter_critical();
 8001244:	f7ff f992 	bl	800056c <rtos_enter_critical>
 8001248:	6178      	str	r0, [r7, #20]

    if (g_kernel.current_task->wait_object == q) {
 800124a:	4b26      	ldr	r3, [pc, #152]	@ (80012e4 <rtos_queue_send+0x18c>)
 800124c:	6a5b      	ldr	r3, [r3, #36]	@ 0x24
 800124e:	6b5b      	ldr	r3, [r3, #52]	@ 0x34
 8001250:	68fa      	ldr	r2, [r7, #12]
 8001252:	429a      	cmp	r2, r3
 8001254:	d111      	bne.n	800127a <rtos_queue_send+0x122>
        rtos_list_remove(&q->send_wait, g_kernel.current_task);
 8001256:	68fb      	ldr	r3, [r7, #12]
 8001258:	3318      	adds	r3, #24
 800125a:	4a22      	ldr	r2, [pc, #136]	@ (80012e4 <rtos_queue_send+0x18c>)
 800125c:	6a52      	ldr	r2, [r2, #36]	@ 0x24
 800125e:	4611      	mov	r1, r2
 8001260:	4618      	mov	r0, r3
 8001262:	f7ff fa58 	bl	8000716 <rtos_list_remove>
        g_kernel.current_task->wait_object = NULL;
 8001266:	4b1f      	ldr	r3, [pc, #124]	@ (80012e4 <rtos_queue_send+0x18c>)
 8001268:	6a5b      	ldr	r3, [r3, #36]	@ 0x24
 800126a:	2200      	movs	r2, #0
 800126c:	635a      	str	r2, [r3, #52]	@ 0x34
        rtos_exit_critical(state);
 800126e:	6978      	ldr	r0, [r7, #20]
 8001270:	f7ff f989 	bl	8000586 <rtos_exit_critical>
        return RTOS_ERR_TIMEOUT;
 8001274:	f06f 0301 	mvn.w	r3, #1
 8001278:	e02f      	b.n	80012da <rtos_queue_send+0x182>
    }

    /* Try to send again */
    if (q->count < q->capacity) {
 800127a:	68fb      	ldr	r3, [r7, #12]
 800127c:	695a      	ldr	r2, [r3, #20]
 800127e:	68fb      	ldr	r3, [r7, #12]
 8001280:	689b      	ldr	r3, [r3, #8]
 8001282:	429a      	cmp	r2, r3
 8001284:	d224      	bcs.n	80012d0 <rtos_queue_send+0x178>
        memcpy(&q->buffer[q->head * q->msg_size], msg, q->msg_size);
 8001286:	68fb      	ldr	r3, [r7, #12]
 8001288:	681a      	ldr	r2, [r3, #0]
 800128a:	68fb      	ldr	r3, [r7, #12]
 800128c:	68db      	ldr	r3, [r3, #12]
 800128e:	68f9      	ldr	r1, [r7, #12]
 8001290:	6849      	ldr	r1, [r1, #4]
 8001292:	fb01 f303 	mul.w	r3, r1, r3
 8001296:	18d0      	adds	r0, r2, r3
 8001298:	68fb      	ldr	r3, [r7, #12]
 800129a:	685b      	ldr	r3, [r3, #4]
 800129c:	461a      	mov	r2, r3
 800129e:	68b9      	ldr	r1, [r7, #8]
 80012a0:	f7fe ff1c 	bl	80000dc <memcpy>
        q->head = (q->head + 1) % q->capacity;
 80012a4:	68fb      	ldr	r3, [r7, #12]
 80012a6:	68db      	ldr	r3, [r3, #12]
 80012a8:	3301      	adds	r3, #1
 80012aa:	68fa      	ldr	r2, [r7, #12]
 80012ac:	6892      	ldr	r2, [r2, #8]
 80012ae:	fbb3 f1f2 	udiv	r1, r3, r2
 80012b2:	fb01 f202 	mul.w	r2, r1, r2
 80012b6:	1a9a      	subs	r2, r3, r2
 80012b8:	68fb      	ldr	r3, [r7, #12]
 80012ba:	60da      	str	r2, [r3, #12]
        q->count++;
 80012bc:	68fb      	ldr	r3, [r7, #12]
 80012be:	695b      	ldr	r3, [r3, #20]
 80012c0:	1c5a      	adds	r2, r3, #1
 80012c2:	68fb      	ldr	r3, [r7, #12]
 80012c4:	615a      	str	r2, [r3, #20]
        rtos_exit_critical(state);
 80012c6:	6978      	ldr	r0, [r7, #20]
 80012c8:	f7ff f95d 	bl	8000586 <rtos_exit_critical>
        return RTOS_OK;
 80012cc:	2300      	movs	r3, #0
 80012ce:	e004      	b.n	80012da <rtos_queue_send+0x182>
    }

    rtos_exit_critical(state);
 80012d0:	6978      	ldr	r0, [r7, #20]
 80012d2:	f7ff f958 	bl	8000586 <rtos_exit_critical>
    return RTOS_ERR_RESOURCE;
 80012d6:	f06f 0302 	mvn.w	r3, #2
}
 80012da:	4618      	mov	r0, r3
 80012dc:	3718      	adds	r7, #24
 80012de:	46bd      	mov	sp, r7
 80012e0:	bd80      	pop	{r7, pc}
 80012e2:	bf00      	nop
 80012e4:	20000000 	.word	0x20000000

080012e8 <rtos_queue_recv>:

rtos_status_t rtos_queue_recv(rtos_queue_t *q, void *msg, uint32_t timeout_ms) {
 80012e8:	b580      	push	{r7, lr}
 80012ea:	b086      	sub	sp, #24
 80012ec:	af00      	add	r7, sp, #0
 80012ee:	60f8      	str	r0, [r7, #12]
 80012f0:	60b9      	str	r1, [r7, #8]
 80012f2:	607a      	str	r2, [r7, #4]
    if (q == NULL || msg == NULL) {
 80012f4:	68fb      	ldr	r3, [r7, #12]
 80012f6:	2b00      	cmp	r3, #0
 80012f8:	d002      	beq.n	8001300 <rtos_queue_recv+0x18>
 80012fa:	68bb      	ldr	r3, [r7, #8]
 80012fc:	2b00      	cmp	r3, #0
 80012fe:	d102      	bne.n	8001306 <rtos_queue_recv+0x1e>
        return RTOS_ERR_PARAM;
 8001300:	f04f 33ff 	mov.w	r3, #4294967295	@ 0xffffffff
 8001304:	e0ad      	b.n	8001462 <rtos_queue_recv+0x17a>
    }

    uint32_t state = rtos_enter_critical();
 8001306:	f7ff f931 	bl	800056c <rtos_enter_critical>
 800130a:	6178      	str	r0, [r7, #20]

    /* Check if queue has messages */
    if (q->count > 0) {
 800130c:	68fb      	ldr	r3, [r7, #12]
 800130e:	695b      	ldr	r3, [r3, #20]
 8001310:	2b00      	cmp	r3, #0
 8001312:	d048      	beq.n	80013a6 <rtos_queue_recv+0xbe>
        /* Copy message from queue */
        memcpy(msg, &q->buffer[q->tail * q->msg_size], q->msg_size);
 8001314:	68fb      	ldr	r3, [r7, #12]
 8001316:	681a      	ldr	r2, [r3, #0]
 8001318:	68fb      	ldr	r3, [r7, #12]
 800131a:	691b      	ldr	r3, [r3, #16]
 800131c:	68f9      	ldr	r1, [r7, #12]
 800131e:	6849      	ldr	r1, [r1, #4]
 8001320:	fb01 f303 	mul.w	r3, r1, r3
 8001324:	18d1      	adds	r1, r2, r3
 8001326:	68fb      	ldr	r3, [r7, #12]
 8001328:	685b      	ldr	r3, [r3, #4]
 800132a:	461a      	mov	r2, r3
 800132c:	68b8      	ldr	r0, [r7, #8]
 800132e:	f7fe fed5 	bl	80000dc <memcpy>
        q->tail = (q->tail + 1) % q->capacity;
 8001332:	68fb      	ldr	r3, [r7, #12]
 8001334:	691b      	ldr	r3, [r3, #16]
 8001336:	3301      	adds	r3, #1
 8001338:	68fa      	ldr	r2, [r7, #12]
 800133a:	6892      	ldr	r2, [r2, #8]
 800133c:	fbb3 f1f2 	udiv	r1, r3, r2
 8001340:	fb01 f202 	mul.w	r2, r1, r2
 8001344:	1a9a      	subs	r2, r3, r2
 8001346:	68fb      	ldr	r3, [r7, #12]
 8001348:	611a      	str	r2, [r3, #16]
        q->count--;
 800134a:	68fb      	ldr	r3, [r7, #12]
 800134c:	695b      	ldr	r3, [r3, #20]
 800134e:	1e5a      	subs	r2, r3, #1
 8001350:	68fb      	ldr	r3, [r7, #12]
 8001352:	615a      	str	r2, [r3, #20]

        /* Wake a waiting sender if any */
        if (!rtos_list_is_empty(&q->send_wait)) {
 8001354:	68fb      	ldr	r3, [r7, #12]
 8001356:	3318      	adds	r3, #24
 8001358:	4618      	mov	r0, r3
 800135a:	f7ff f943 	bl	80005e4 <rtos_list_is_empty>
 800135e:	4603      	mov	r3, r0
 8001360:	2b00      	cmp	r3, #0
 8001362:	d11b      	bne.n	800139c <rtos_queue_recv+0xb4>
            rtos_tcb_t *woken = wake_highest_priority_waiter(&q->send_wait);
 8001364:	68fb      	ldr	r3, [r7, #12]
 8001366:	3318      	adds	r3, #24
 8001368:	4618      	mov	r0, r3
 800136a:	f7ff fd45 	bl	8000df8 <wake_highest_priority_waiter>
 800136e:	6138      	str	r0, [r7, #16]

            rtos_exit_critical(state);
 8001370:	6978      	ldr	r0, [r7, #20]
 8001372:	f7ff f908 	bl	8000586 <rtos_exit_critical>

            if (woken != NULL && g_kernel.scheduler_running &&
 8001376:	693b      	ldr	r3, [r7, #16]
 8001378:	2b00      	cmp	r3, #0
 800137a:	d00d      	beq.n	8001398 <rtos_queue_recv+0xb0>
 800137c:	4b3b      	ldr	r3, [pc, #236]	@ (800146c <rtos_queue_recv+0x184>)
 800137e:	f893 3030 	ldrb.w	r3, [r3, #48]	@ 0x30
 8001382:	2b00      	cmp	r3, #0
 8001384:	d008      	beq.n	8001398 <rtos_queue_recv+0xb0>
                woken->priority < g_kernel.current_task->priority) {
 8001386:	693b      	ldr	r3, [r7, #16]
 8001388:	685a      	ldr	r2, [r3, #4]
 800138a:	4b38      	ldr	r3, [pc, #224]	@ (800146c <rtos_queue_recv+0x184>)
 800138c:	6a5b      	ldr	r3, [r3, #36]	@ 0x24
 800138e:	685b      	ldr	r3, [r3, #4]
            if (woken != NULL && g_kernel.scheduler_running &&
 8001390:	429a      	cmp	r2, r3
 8001392:	d201      	bcs.n	8001398 <rtos_queue_recv+0xb0>
                rtos_trigger_context_switch();
 8001394:	f7ff f874 	bl	8000480 <rtos_trigger_context_switch>
            }

            return RTOS_OK;
 8001398:	2300      	movs	r3, #0
 800139a:	e062      	b.n	8001462 <rtos_queue_recv+0x17a>
        }

        rtos_exit_critical(state);
 800139c:	6978      	ldr	r0, [r7, #20]
 800139e:	f7ff f8f2 	bl	8000586 <rtos_exit_critical>
        return RTOS_OK;
 80013a2:	2300      	movs	r3, #0
 80013a4:	e05d      	b.n	8001462 <rtos_queue_recv+0x17a>
    }

    /* Queue empty */
    if (timeout_ms == RTOS_NO_WAIT) {
 80013a6:	687b      	ldr	r3, [r7, #4]
 80013a8:	2b00      	cmp	r3, #0
 80013aa:	d105      	bne.n	80013b8 <rtos_queue_recv+0xd0>
        rtos_exit_critical(state);
 80013ac:	6978      	ldr	r0, [r7, #20]
 80013ae:	f7ff f8ea 	bl	8000586 <rtos_exit_critical>
        return RTOS_ERR_RESOURCE;
 80013b2:	f06f 0302 	mvn.w	r3, #2
 80013b6:	e054      	b.n	8001462 <rtos_queue_recv+0x17a>
    }

    /* Block on receive wait list */
    block_on_wait_list(&q->recv_wait, q, timeout_ms);
 80013b8:	68fb      	ldr	r3, [r7, #12]
 80013ba:	3320      	adds	r3, #32
 80013bc:	687a      	ldr	r2, [r7, #4]
 80013be:	68f9      	ldr	r1, [r7, #12]
 80013c0:	4618      	mov	r0, r3
 80013c2:	f7ff fcdf 	bl	8000d84 <block_on_wait_list>

    rtos_exit_critical(state);
 80013c6:	6978      	ldr	r0, [r7, #20]
 80013c8:	f7ff f8dd 	bl	8000586 <rtos_exit_critical>
    rtos_trigger_context_switch();
 80013cc:	f7ff f858 	bl	8000480 <rtos_trigger_context_switch>

    /* Check if we can receive now or timed out */
    state = rtos_enter_critical();
 80013d0:	f7ff f8cc 	bl	800056c <rtos_enter_critical>
 80013d4:	6178      	str	r0, [r7, #20]

    if (g_kernel.current_task->wait_object == q) {
 80013d6:	4b25      	ldr	r3, [pc, #148]	@ (800146c <rtos_queue_recv+0x184>)
 80013d8:	6a5b      	ldr	r3, [r3, #36]	@ 0x24
 80013da:	6b5b      	ldr	r3, [r3, #52]	@ 0x34
 80013dc:	68fa      	ldr	r2, [r7, #12]
 80013de:	429a      	cmp	r2, r3
 80013e0:	d111      	bne.n	8001406 <rtos_queue_recv+0x11e>
        rtos_list_remove(&q->recv_wait, g_kernel.current_task);
 80013e2:	68fb      	ldr	r3, [r7, #12]
 80013e4:	3320      	adds	r3, #32
 80013e6:	4a21      	ldr	r2, [pc, #132]	@ (800146c <rtos_queue_recv+0x184>)
 80013e8:	6a52      	ldr	r2, [r2, #36]	@ 0x24
 80013ea:	4611      	mov	r1, r2
 80013ec:	4618      	mov	r0, r3
 80013ee:	f7ff f992 	bl	8000716 <rtos_list_remove>
        g_kernel.current_task->wait_object = NULL;
 80013f2:	4b1e      	ldr	r3, [pc, #120]	@ (800146c <rtos_queue_recv+0x184>)
 80013f4:	6a5b      	ldr	r3, [r3, #36]	@ 0x24
 80013f6:	2200      	movs	r2, #0
 80013f8:	635a      	str	r2, [r3, #52]	@ 0x34
        rtos_exit_critical(state);
 80013fa:	6978      	ldr	r0, [r7, #20]
 80013fc:	f7ff f8c3 	bl	8000586 <rtos_exit_critical>
        return RTOS_ERR_TIMEOUT;
 8001400:	f06f 0301 	mvn.w	r3, #1
 8001404:	e02d      	b.n	8001462 <rtos_queue_recv+0x17a>
    }

    /* Try to receive again */
    if (q->count > 0) {
 8001406:	68fb      	ldr	r3, [r7, #12]
 8001408:	695b      	ldr	r3, [r3, #20]
 800140a:	2b00      	cmp	r3, #0
 800140c:	d024      	beq.n	8001458 <rtos_queue_recv+0x170>
        memcpy(msg, &q->buffer[q->tail * q->msg_size], q->msg_size);
 800140e:	68fb      	ldr	r3, [r7, #12]
 8001410:	681a      	ldr	r2, [r3, #0]
 8001412:	68fb      	ldr	r3, [r7, #12]
 8001414:	691b      	ldr	r3, [r3, #16]
 8001416:	68f9      	ldr	r1, [r7, #12]
 8001418:	6849      	ldr	r1, [r1, #4]
 800141a:	fb01 f303 	mul.w	r3, r1, r3
 800141e:	18d1      	adds	r1, r2, r3
 8001420:	68fb      	ldr	r3, [r7, #12]
 8001422:	685b      	ldr	r3, [r3, #4]
 8001424:	461a      	mov	r2, r3
 8001426:	68b8      	ldr	r0, [r7, #8]
 8001428:	f7fe fe58 	bl	80000dc <memcpy>
        q->tail = (q->tail + 1) % q->capacity;
 800142c:	68fb      	ldr	r3, [r7, #12]
 800142e:	691b      	ldr	r3, [r3, #16]
 8001430:	3301      	adds	r3, #1
 8001432:	68fa      	ldr	r2, [r7, #12]
 8001434:	6892      	ldr	r2, [r2, #8]
 8001436:	fbb3 f1f2 	udiv	r1, r3, r2
 800143a:	fb01 f202 	mul.w	r2, r1, r2
 800143e:	1a9a      	subs	r2, r3, r2
 8001440:	68fb      	ldr	r3, [r7, #12]
 8001442:	611a      	str	r2, [r3, #16]
        q->count--;
 8001444:	68fb      	ldr	r3, [r7, #12]
 8001446:	695b      	ldr	r3, [r3, #20]
 8001448:	1e5a      	subs	r2, r3, #1
 800144a:	68fb      	ldr	r3, [r7, #12]
 800144c:	615a      	str	r2, [r3, #20]
        rtos_exit_critical(state);
 800144e:	6978      	ldr	r0, [r7, #20]
 8001450:	f7ff f899 	bl	8000586 <rtos_exit_critical>
        return RTOS_OK;
 8001454:	2300      	movs	r3, #0
 8001456:	e004      	b.n	8001462 <rtos_queue_recv+0x17a>
    }

    rtos_exit_critical(state);
 8001458:	6978      	ldr	r0, [r7, #20]
 800145a:	f7ff f894 	bl	8000586 <rtos_exit_critical>
    return RTOS_ERR_RESOURCE;
 800145e:	f06f 0302 	mvn.w	r3, #2
}
 8001462:	4618      	mov	r0, r3
 8001464:	3718      	adds	r7, #24
 8001466:	46bd      	mov	sp, r7
 8001468:	bd80      	pop	{r7, pc}
 800146a:	bf00      	nop
 800146c:	20000000 	.word	0x20000000

08001470 <rtos_timer_init>:

/*---------------------------------------------------------------------------*/
/* Timer Initialization */
/*---------------------------------------------------------------------------*/

rtos_status_t rtos_timer_init(rtos_timer_t *timer) {
 8001470:	b480      	push	{r7}
 8001472:	b083      	sub	sp, #12
 8001474:	af00      	add	r7, sp, #0
 8001476:	6078      	str	r0, [r7, #4]
    if (timer == NULL) {
 8001478:	687b      	ldr	r3, [r7, #4]
 800147a:	2b00      	cmp	r3, #0
 800147c:	d102      	bne.n	8001484 <rtos_timer_init+0x14>
        return RTOS_ERR_PARAM;
 800147e:	f04f 33ff 	mov.w	r3, #4294967295	@ 0xffffffff
 8001482:	e015      	b.n	80014b0 <rtos_timer_init+0x40>
    }

    timer->period_ticks = 0;
 8001484:	687b      	ldr	r3, [r7, #4]
 8001486:	2200      	movs	r2, #0
 8001488:	601a      	str	r2, [r3, #0]
    timer->next_expiry = 0;
 800148a:	687b      	ldr	r3, [r7, #4]
 800148c:	2200      	movs	r2, #0
 800148e:	605a      	str	r2, [r3, #4]
    timer->callback = NULL;
 8001490:	687b      	ldr	r3, [r7, #4]
 8001492:	2200      	movs	r2, #0
 8001494:	609a      	str	r2, [r3, #8]
    timer->arg = NULL;
 8001496:	687b      	ldr	r3, [r7, #4]
 8001498:	2200      	movs	r2, #0
 800149a:	60da      	str	r2, [r3, #12]
    timer->active = 0;
 800149c:	687b      	ldr	r3, [r7, #4]
 800149e:	2200      	movs	r2, #0
 80014a0:	741a      	strb	r2, [r3, #16]
    timer->one_shot = 0;
 80014a2:	687b      	ldr	r3, [r7, #4]
 80014a4:	2200      	movs	r2, #0
 80014a6:	745a      	strb	r2, [r3, #17]
    timer->next = NULL;
 80014a8:	687b      	ldr	r3, [r7, #4]
 80014aa:	2200      	movs	r2, #0
 80014ac:	615a      	str	r2, [r3, #20]

    return RTOS_OK;
 80014ae:	2300      	movs	r3, #0
}
 80014b0:	4618      	mov	r0, r3
 80014b2:	370c      	adds	r7, #12
 80014b4:	46bd      	mov	sp, r7
 80014b6:	bc80      	pop	{r7}
 80014b8:	4770      	bx	lr
	...

080014bc <timer_insert>:

/*---------------------------------------------------------------------------*/
/* Helper: Insert Timer into Sorted List */
/*---------------------------------------------------------------------------*/
static void timer_insert(rtos_timer_t *timer) {
 80014bc:	b480      	push	{r7}
 80014be:	b085      	sub	sp, #20
 80014c0:	af00      	add	r7, sp, #0
 80014c2:	6078      	str	r0, [r7, #4]
    timer->next = NULL;
 80014c4:	687b      	ldr	r3, [r7, #4]
 80014c6:	2200      	movs	r2, #0
 80014c8:	615a      	str	r2, [r3, #20]

    if (g_kernel.timer_list == NULL) {
 80014ca:	4b19      	ldr	r3, [pc, #100]	@ (8001530 <timer_insert+0x74>)
 80014cc:	6bdb      	ldr	r3, [r3, #60]	@ 0x3c
 80014ce:	2b00      	cmp	r3, #0
 80014d0:	d103      	bne.n	80014da <timer_insert+0x1e>
        g_kernel.timer_list = timer;
 80014d2:	4a17      	ldr	r2, [pc, #92]	@ (8001530 <timer_insert+0x74>)
 80014d4:	687b      	ldr	r3, [r7, #4]
 80014d6:	63d3      	str	r3, [r2, #60]	@ 0x3c
        return;
 80014d8:	e026      	b.n	8001528 <timer_insert+0x6c>
    }

    /* Insert sorted by next_expiry */
    rtos_timer_t *prev = NULL;
 80014da:	2300      	movs	r3, #0
 80014dc:	60fb      	str	r3, [r7, #12]
    rtos_timer_t *curr = g_kernel.timer_list;
 80014de:	4b14      	ldr	r3, [pc, #80]	@ (8001530 <timer_insert+0x74>)
 80014e0:	6bdb      	ldr	r3, [r3, #60]	@ 0x3c
 80014e2:	60bb      	str	r3, [r7, #8]

    while (curr != NULL && (int32_t)(curr->next_expiry - timer->next_expiry) <= 0) {
 80014e4:	e004      	b.n	80014f0 <timer_insert+0x34>
        prev = curr;
 80014e6:	68bb      	ldr	r3, [r7, #8]
 80014e8:	60fb      	str	r3, [r7, #12]
        curr = curr->next;
 80014ea:	68bb      	ldr	r3, [r7, #8]
 80014ec:	695b      	ldr	r3, [r3, #20]
 80014ee:	60bb      	str	r3, [r7, #8]
    while (curr != NULL && (int32_t)(curr->next_expiry - timer->next_expiry) <= 0) {
 80014f0:	68bb      	ldr	r3, [r7, #8]
 80014f2:	2b00      	cmp	r3, #0
 80014f4:	d006      	beq.n	8001504 <timer_insert+0x48>
 80014f6:	68bb      	ldr	r3, [r7, #8]
 80014f8:	685a      	ldr	r2, [r3, #4]
 80014fa:	687b      	ldr	r3, [r7, #4]
 80014fc:	685b      	ldr	r3, [r3, #4]
 80014fe:	1ad3      	subs	r3, r2, r3
 8001500:	2b00      	cmp	r3, #0
 8001502:	ddf0      	ble.n	80014e6 <timer_insert+0x2a>
    }

    if (prev == NULL) {
 8001504:	68fb      	ldr	r3, [r7, #12]
 8001506:	2b00      	cmp	r3, #0
 8001508:	d107      	bne.n	800151a <timer_insert+0x5e>
        /* Insert at head */
        timer->next = g_kernel.timer_list;
 800150a:	4b09      	ldr	r3, [pc, #36]	@ (8001530 <timer_insert+0x74>)
 800150c:	6bda      	ldr	r2, [r3, #60]	@ 0x3c
 800150e:	687b      	ldr	r3, [r7, #4]
 8001510:	615a      	str	r2, [r3, #20]
        g_kernel.timer_list = timer;
 8001512:	4a07      	ldr	r2, [pc, #28]	@ (8001530 <timer_insert+0x74>)
 8001514:	687b      	ldr	r3, [r7, #4]
 8001516:	63d3      	str	r3, [r2, #60]	@ 0x3c
 8001518:	e006      	b.n	8001528 <timer_insert+0x6c>
    } else {
        /* Insert after prev */
        timer->next = prev->next;
 800151a:	68fb      	ldr	r3, [r7, #12]
 800151c:	695a      	ldr	r2, [r3, #20]
 800151e:	687b      	ldr	r3, [r7, #4]
 8001520:	615a      	str	r2, [r3, #20]
        prev->next = timer;
 8001522:	68fb      	ldr	r3, [r7, #12]
 8001524:	687a      	ldr	r2, [r7, #4]
 8001526:	615a      	str	r2, [r3, #20]
    }
}
 8001528:	3714      	adds	r7, #20
 800152a:	46bd      	mov	sp, r7
 800152c:	bc80      	pop	{r7}
 800152e:	4770      	bx	lr
 8001530:	20000000 	.word	0x20000000

08001534 <timer_remove>:

/*---------------------------------------------------------------------------*/
/* Helper: Remove Timer from List */
/*---------------------------------------------------------------------------*/
static void timer_remove(rtos_timer_t *timer) {
 8001534:	b480      	push	{r7}
 8001536:	b085      	sub	sp, #20
 8001538:	af00      	add	r7, sp, #0
 800153a:	6078      	str	r0, [r7, #4]
    if (g_kernel.timer_list == NULL) {
 800153c:	4b19      	ldr	r3, [pc, #100]	@ (80015a4 <timer_remove+0x70>)
 800153e:	6bdb      	ldr	r3, [r3, #60]	@ 0x3c
 8001540:	2b00      	cmp	r3, #0
 8001542:	d029      	beq.n	8001598 <timer_remove+0x64>
        return;
    }

    if (g_kernel.timer_list == timer) {
 8001544:	4b17      	ldr	r3, [pc, #92]	@ (80015a4 <timer_remove+0x70>)
 8001546:	6bdb      	ldr	r3, [r3, #60]	@ 0x3c
 8001548:	687a      	ldr	r2, [r7, #4]
 800154a:	429a      	cmp	r2, r3
 800154c:	d107      	bne.n	800155e <timer_remove+0x2a>
        g_kernel.timer_list = timer->next;
 800154e:	687b      	ldr	r3, [r7, #4]
 8001550:	695b      	ldr	r3, [r3, #20]
 8001552:	4a14      	ldr	r2, [pc, #80]	@ (80015a4 <timer_remove+0x70>)
 8001554:	63d3      	str	r3, [r2, #60]	@ 0x3c
        timer->next = NULL;
 8001556:	687b      	ldr	r3, [r7, #4]
 8001558:	2200      	movs	r2, #0
 800155a:	615a      	str	r2, [r3, #20]
        return;
 800155c:	e01d      	b.n	800159a <timer_remove+0x66>
    }

    rtos_timer_t *prev = g_kernel.timer_list;
 800155e:	4b11      	ldr	r3, [pc, #68]	@ (80015a4 <timer_remove+0x70>)
 8001560:	6bdb      	ldr	r3, [r3, #60]	@ 0x3c
 8001562:	60fb      	str	r3, [r7, #12]
    while (prev->next != NULL && prev->next != timer) {
 8001564:	e002      	b.n	800156c <timer_remove+0x38>
        prev = prev->next;
 8001566:	68fb      	ldr	r3, [r7, #12]
 8001568:	695b      	ldr	r3, [r3, #20]
 800156a:	60fb      	str	r3, [r7, #12]
    while (prev->next != NULL && prev->next != timer) {
 800156c:	68fb      	ldr	r3, [r7, #12]
 800156e:	695b      	ldr	r3, [r3, #20]
 8001570:	2b00      	cmp	r3, #0
 8001572:	d004      	beq.n	800157e <timer_remove+0x4a>
 8001574:	68fb      	ldr	r3, [r7, #12]
 8001576:	695b      	ldr	r3, [r3, #20]
 8001578:	687a      	ldr	r2, [r7, #4]
 800157a:	429a      	cmp	r2, r3
 800157c:	d1f3      	bne.n	8001566 <timer_remove+0x32>
    }

    if (prev->next == timer) {
 800157e:	68fb      	ldr	r3, [r7, #12]
 8001580:	695b      	ldr	r3, [r3, #20]
 8001582:	687a      	ldr	r2, [r7, #4]
 8001584:	429a      	cmp	r2, r3
 8001586:	d108      	bne.n	800159a <timer_remove+0x66>
        prev->next = timer->next;
 8001588:	687b      	ldr	r3, [r7, #4]
 800158a:	695a      	ldr	r2, [r3, #20]
 800158c:	68fb      	ldr	r3, [r7, #12]
 800158e:	615a      	str	r2, [r3, #20]
        timer->next = NULL;
 8001590:	687b      	ldr	r3, [r7, #4]
 8001592:	2200      	movs	r2, #0
 8001594:	615a      	str	r2, [r3, #20]
 8001596:	e000      	b.n	800159a <timer_remove+0x66>
        return;
 8001598:	bf00      	nop
    }
}
 800159a:	3714      	adds	r7, #20
 800159c:	46bd      	mov	sp, r7
 800159e:	bc80      	pop	{r7}
 80015a0:	4770      	bx	lr
 80015a2:	bf00      	nop
 80015a4:	20000000 	.word	0x20000000

080015a8 <rtos_timer_start>:
/*---------------------------------------------------------------------------*/
/* Start Periodic Timer */
/*---------------------------------------------------------------------------*/

rtos_status_t rtos_timer_start(rtos_timer_t *timer, uint32_t period_ms,
                                rtos_timer_cb_t callback, void *arg) {
 80015a8:	b580      	push	{r7, lr}
 80015aa:	b086      	sub	sp, #24
 80015ac:	af00      	add	r7, sp, #0
 80015ae:	60f8      	str	r0, [r7, #12]
 80015b0:	60b9      	str	r1, [r7, #8]
 80015b2:	607a      	str	r2, [r7, #4]
 80015b4:	603b      	str	r3, [r7, #0]
    if (timer == NULL || callback == NULL || period_ms == 0) {
 80015b6:	68fb      	ldr	r3, [r7, #12]
 80015b8:	2b00      	cmp	r3, #0
 80015ba:	d005      	beq.n	80015c8 <rtos_timer_start+0x20>
 80015bc:	687b      	ldr	r3, [r7, #4]
 80015be:	2b00      	cmp	r3, #0
 80015c0:	d002      	beq.n	80015c8 <rtos_timer_start+0x20>
 80015c2:	68bb      	ldr	r3, [r7, #8]
 80015c4:	2b00      	cmp	r3, #0
 80015c6:	d102      	bne.n	80015ce <rtos_timer_start+0x26>
        return RTOS_ERR_PARAM;
 80015c8:	f04f 33ff 	mov.w	r3, #4294967295	@ 0xffffffff
 80015cc:	e035      	b.n	800163a <rtos_timer_start+0x92>
    }

    uint32_t state = rtos_enter_critical();
 80015ce:	f7fe ffcd 	bl	800056c <rtos_enter_critical>
 80015d2:	6178      	str	r0, [r7, #20]

    /* Remove from list if already active */
    if (timer->active) {
 80015d4:	68fb      	ldr	r3, [r7, #12]
 80015d6:	7c1b      	ldrb	r3, [r3, #16]
 80015d8:	2b00      	cmp	r3, #0
 80015da:	d002      	beq.n	80015e2 <rtos_timer_start+0x3a>
        timer_remove(timer);
 80015dc:	68f8      	ldr	r0, [r7, #12]
 80015de:	f7ff ffa9 	bl	8001534 <timer_remove>
    }

    /* Configure timer */
    timer->period_ticks = (period_ms * RTOS_TICK_RATE_HZ) / 1000;
 80015e2:	68bb      	ldr	r3, [r7, #8]
 80015e4:	f44f 727a 	mov.w	r2, #1000	@ 0x3e8
 80015e8:	fb02 f303 	mul.w	r3, r2, r3
 80015ec:	4a15      	ldr	r2, [pc, #84]	@ (8001644 <rtos_timer_start+0x9c>)
 80015ee:	fba2 2303 	umull	r2, r3, r2, r3
 80015f2:	099a      	lsrs	r2, r3, #6
 80015f4:	68fb      	ldr	r3, [r7, #12]
 80015f6:	601a      	str	r2, [r3, #0]
    if (timer->period_ticks == 0) {
 80015f8:	68fb      	ldr	r3, [r7, #12]
 80015fa:	681b      	ldr	r3, [r3, #0]
 80015fc:	2b00      	cmp	r3, #0
 80015fe:	d102      	bne.n	8001606 <rtos_timer_start+0x5e>
        timer->period_ticks = 1;
 8001600:	68fb      	ldr	r3, [r7, #12]
 8001602:	2201      	movs	r2, #1
 8001604:	601a      	str	r2, [r3, #0]
    }
    timer->next_expiry = g_kernel.tick_count + timer->period_ticks;
 8001606:	4b10      	ldr	r3, [pc, #64]	@ (8001648 <rtos_timer_start+0xa0>)
 8001608:	6ada      	ldr	r2, [r3, #44]	@ 0x2c
 800160a:	68fb      	ldr	r3, [r7, #12]
 800160c:	681b      	ldr	r3, [r3, #0]
 800160e:	441a      	add	r2, r3
 8001610:	68fb      	ldr	r3, [r7, #12]
 8001612:	605a      	str	r2, [r3, #4]
    timer->callback = callback;
 8001614:	68fb      	ldr	r3, [r7, #12]
 8001616:	687a      	ldr	r2, [r7, #4]
 8001618:	609a      	str	r2, [r3, #8]
    timer->arg = arg;
 800161a:	68fb      	ldr	r3, [r7, #12]
 800161c:	683a      	ldr	r2, [r7, #0]
 800161e:	60da      	str	r2, [r3, #12]
    timer->active = 1;
 8001620:	68fb      	ldr	r3, [r7, #12]
 8001622:	2201      	movs	r2, #1
 8001624:	741a      	strb	r2, [r3, #16]
    timer->one_shot = 0;
 8001626:	68fb      	ldr	r3, [r7, #12]
 8001628:	2200      	movs	r2, #0
 800162a:	745a      	strb	r2, [r3, #17]

    /* Insert into timer list */
    timer_insert(timer);
 800162c:	68f8      	ldr	r0, [r7, #12]
 800162e:	f7ff ff45 	bl	80014bc <timer_insert>

    rtos_exit_critical(state);
 8001632:	6978      	ldr	r0, [r7, #20]
 8001634:	f7fe ffa7 	bl	8000586 <rtos_exit_critical>

    return RTOS_OK;
 8001638:	2300      	movs	r3, #0
}
 800163a:	4618      	mov	r0, r3
 800163c:	3718      	adds	r7, #24
 800163e:	46bd      	mov	sp, r7
 8001640:	bd80      	pop	{r7, pc}
 8001642:	bf00      	nop
 8001644:	10624dd3 	.word	0x10624dd3
 8001648:	20000000 	.word	0x20000000

0800164c <rtos_timer_tick>:

/*---------------------------------------------------------------------------*/
/* Timer Tick Processing (called from SysTick ISR) */
/*---------------------------------------------------------------------------*/

void rtos_timer_tick(void) {
 800164c:	b580      	push	{r7, lr}
 800164e:	b082      	sub	sp, #8
 8001650:	af00      	add	r7, sp, #0
    /* Process expired timers */
    while (g_kernel.timer_list != NULL) {
 8001652:	e030      	b.n	80016b6 <rtos_timer_tick+0x6a>
        rtos_timer_t *timer = g_kernel.timer_list;
 8001654:	4b1d      	ldr	r3, [pc, #116]	@ (80016cc <rtos_timer_tick+0x80>)
 8001656:	6bdb      	ldr	r3, [r3, #60]	@ 0x3c
 8001658:	607b      	str	r3, [r7, #4]

        /* Check if timer expired */
        if ((int32_t)(g_kernel.tick_count - timer->next_expiry) >= 0) {
 800165a:	4b1c      	ldr	r3, [pc, #112]	@ (80016cc <rtos_timer_tick+0x80>)
 800165c:	6ada      	ldr	r2, [r3, #44]	@ 0x2c
 800165e:	687b      	ldr	r3, [r7, #4]
 8001660:	685b      	ldr	r3, [r3, #4]
 8001662:	1ad3      	subs	r3, r2, r3
 8001664:	2b00      	cmp	r3, #0
 8001666:	db2b      	blt.n	80016c0 <rtos_timer_tick+0x74>
            /* Remove from list */
            g_kernel.timer_list = timer->next;
 8001668:	687b      	ldr	r3, [r7, #4]
 800166a:	695b      	ldr	r3, [r3, #20]
 800166c:	4a17      	ldr	r2, [pc, #92]	@ (80016cc <rtos_timer_tick+0x80>)
 800166e:	63d3      	str	r3, [r2, #60]	@ 0x3c
            timer->next = NULL;
 8001670:	687b      	ldr	r3, [r7, #4]
 8001672:	2200      	movs	r2, #0
 8001674:	615a      	str	r2, [r3, #20]

            /* Call callback */
            if (timer->callback != NULL) {
 8001676:	687b      	ldr	r3, [r7, #4]
 8001678:	689b      	ldr	r3, [r3, #8]
 800167a:	2b00      	cmp	r3, #0
 800167c:	d005      	beq.n	800168a <rtos_timer_tick+0x3e>
                timer->callback(timer->arg);
 800167e:	687b      	ldr	r3, [r7, #4]
 8001680:	689b      	ldr	r3, [r3, #8]
 8001682:	687a      	ldr	r2, [r7, #4]
 8001684:	68d2      	ldr	r2, [r2, #12]
 8001686:	4610      	mov	r0, r2
 8001688:	4798      	blx	r3
            }

            /* Reschedule if periodic */
            if (!timer->one_shot && timer->active) {
 800168a:	687b      	ldr	r3, [r7, #4]
 800168c:	7c5b      	ldrb	r3, [r3, #17]
 800168e:	2b00      	cmp	r3, #0
 8001690:	d10e      	bne.n	80016b0 <rtos_timer_tick+0x64>
 8001692:	687b      	ldr	r3, [r7, #4]
 8001694:	7c1b      	ldrb	r3, [r3, #16]
 8001696:	2b00      	cmp	r3, #0
 8001698:	d00a      	beq.n	80016b0 <rtos_timer_tick+0x64>
                timer->next_expiry = g_kernel.tick_count + timer->period_ticks;
 800169a:	4b0c      	ldr	r3, [pc, #48]	@ (80016cc <rtos_timer_tick+0x80>)
 800169c:	6ada      	ldr	r2, [r3, #44]	@ 0x2c
 800169e:	687b      	ldr	r3, [r7, #4]
 80016a0:	681b      	ldr	r3, [r3, #0]
 80016a2:	441a      	add	r2, r3
 80016a4:	687b      	ldr	r3, [r7, #4]
 80016a6:	605a      	str	r2, [r3, #4]
                timer_insert(timer);
 80016a8:	6878      	ldr	r0, [r7, #4]
 80016aa:	f7ff ff07 	bl	80014bc <timer_insert>
 80016ae:	e002      	b.n	80016b6 <rtos_timer_tick+0x6a>
            } else {
                timer->active = 0;
 80016b0:	687b      	ldr	r3, [r7, #4]
 80016b2:	2200      	movs	r2, #0
 80016b4:	741a      	strb	r2, [r3, #16]
    while (g_kernel.timer_list != NULL) {
 80016b6:	4b05      	ldr	r3, [pc, #20]	@ (80016cc <rtos_timer_tick+0x80>)
 80016b8:	6bdb      	ldr	r3, [r3, #60]	@ 0x3c
 80016ba:	2b00      	cmp	r3, #0
 80016bc:	d1ca      	bne.n	8001654 <rtos_timer_tick+0x8>
        } else {
            /* List is sorted, no more expired timers */
            break;
        }
    }
}
 80016be:	e000      	b.n	80016c2 <rtos_timer_tick+0x76>
            break;
 80016c0:	bf00      	nop
}
 80016c2:	bf00      	nop
 80016c4:	3708      	adds	r7, #8
 80016c6:	46bd      	mov	sp, r7
 80016c8:	bd80      	pop	{r7, pc}
 80016ca:	bf00      	nop
 80016cc:	20000000 	.word	0x20000000

080016d0 <hal_uart_init>:

/*---------------------------------------------------------------------------*/
/* UART Initialization */
/*---------------------------------------------------------------------------*/

void hal_uart_init(const hal_uart_config_t *config) {
 80016d0:	b480      	push	{r7}
 80016d2:	b087      	sub	sp, #28
 80016d4:	af00      	add	r7, sp, #0
 80016d6:	6078      	str	r0, [r7, #4]
    if (config == NULL || config->uart == NULL) {
 80016d8:	687b      	ldr	r3, [r7, #4]
 80016da:	2b00      	cmp	r3, #0
 80016dc:	d069      	beq.n	80017b2 <hal_uart_init+0xe2>
 80016de:	687b      	ldr	r3, [r7, #4]
 80016e0:	681b      	ldr	r3, [r3, #0]
 80016e2:	2b00      	cmp	r3, #0
 80016e4:	d065      	beq.n	80017b2 <hal_uart_init+0xe2>
        return;
    }

    USART_TypeDef *uart = config->uart;
 80016e6:	687b      	ldr	r3, [r7, #4]
 80016e8:	681b      	ldr	r3, [r3, #0]
 80016ea:	617b      	str	r3, [r7, #20]

    /* Enable USART clock */
    if (uart == USART1) {
 80016ec:	697b      	ldr	r3, [r7, #20]
 80016ee:	4a33      	ldr	r2, [pc, #204]	@ (80017bc <hal_uart_init+0xec>)
 80016f0:	4293      	cmp	r3, r2
 80016f2:	d106      	bne.n	8001702 <hal_uart_init+0x32>
        RCC->APB2ENR |= RCC_APB2ENR_USART1EN;
 80016f4:	4b32      	ldr	r3, [pc, #200]	@ (80017c0 <hal_uart_init+0xf0>)
 80016f6:	6c5b      	ldr	r3, [r3, #68]	@ 0x44
 80016f8:	4a31      	ldr	r2, [pc, #196]	@ (80017c0 <hal_uart_init+0xf0>)
 80016fa:	f043 0310 	orr.w	r3, r3, #16
 80016fe:	6453      	str	r3, [r2, #68]	@ 0x44
 8001700:	e009      	b.n	8001716 <hal_uart_init+0x46>
    } else if (uart == USART2) {
 8001702:	697b      	ldr	r3, [r7, #20]
 8001704:	4a2f      	ldr	r2, [pc, #188]	@ (80017c4 <hal_uart_init+0xf4>)
 8001706:	4293      	cmp	r3, r2
 8001708:	d105      	bne.n	8001716 <hal_uart_init+0x46>
        RCC->APB1ENR |= RCC_APB1ENR_USART2EN;
 800170a:	4b2d      	ldr	r3, [pc, #180]	@ (80017c0 <hal_uart_init+0xf0>)
 800170c:	6c1b      	ldr	r3, [r3, #64]	@ 0x40
 800170e:	4a2c      	ldr	r2, [pc, #176]	@ (80017c0 <hal_uart_init+0xf0>)
 8001710:	f443 3300 	orr.w	r3, r3, #131072	@ 0x20000
 8001714:	6413      	str	r3, [r2, #64]	@ 0x40
    }

    /* Calculate baud rate divisor */
    /* For 16MHz clock and 115200 baud: 16000000 / 115200 = 138.89 */
    /* BRR = mantissa << 4 | fraction */
    uint32_t pclk = RTOS_CPU_CLOCK_HZ;  /* Assume peripheral clock = CPU clock */
 8001716:	4b2c      	ldr	r3, [pc, #176]	@ (80017c8 <hal_uart_init+0xf8>)
 8001718:	613b      	str	r3, [r7, #16]
    uint32_t div = (pclk + config->baud / 2) / config->baud;
 800171a:	687b      	ldr	r3, [r7, #4]
 800171c:	685b      	ldr	r3, [r3, #4]
 800171e:	085a      	lsrs	r2, r3, #1
 8001720:	693b      	ldr	r3, [r7, #16]
 8001722:	441a      	add	r2, r3
 8001724:	687b      	ldr	r3, [r7, #4]
 8001726:	685b      	ldr	r3, [r3, #4]
 8001728:	fbb2 f3f3 	udiv	r3, r2, r3
 800172c:	60fb      	str	r3, [r7, #12]

    uart->BRR = div;
 800172e:	697b      	ldr	r3, [r7, #20]
 8001730:	68fa      	ldr	r2, [r7, #12]
 8001732:	609a      	str	r2, [r3, #8]

    /* Configure CR1: 8N1, no parity, TX and RX enable */
    uart->CR1 = 0;
 8001734:	697b      	ldr	r3, [r7, #20]
 8001736:	2200      	movs	r2, #0
 8001738:	60da      	str	r2, [r3, #12]

    if (config->word_length == 9) {
 800173a:	687b      	ldr	r3, [r7, #4]
 800173c:	7a1b      	ldrb	r3, [r3, #8]
 800173e:	2b09      	cmp	r3, #9
 8001740:	d105      	bne.n	800174e <hal_uart_init+0x7e>
        uart->CR1 |= USART_CR1_M;
 8001742:	697b      	ldr	r3, [r7, #20]
 8001744:	68db      	ldr	r3, [r3, #12]
 8001746:	f443 5280 	orr.w	r2, r3, #4096	@ 0x1000
 800174a:	697b      	ldr	r3, [r7, #20]
 800174c:	60da      	str	r2, [r3, #12]
    }

    if (config->parity == HAL_UART_PARITY_EVEN) {
 800174e:	687b      	ldr	r3, [r7, #4]
 8001750:	7a9b      	ldrb	r3, [r3, #10]
 8001752:	2b01      	cmp	r3, #1
 8001754:	d106      	bne.n	8001764 <hal_uart_init+0x94>
        uart->CR1 |= USART_CR1_PCE;
 8001756:	697b      	ldr	r3, [r7, #20]
 8001758:	68db      	ldr	r3, [r3, #12]
 800175a:	f443 6280 	orr.w	r2, r3, #1024	@ 0x400
 800175e:	697b      	ldr	r3, [r7, #20]
 8001760:	60da      	str	r2, [r3, #12]
 8001762:	e009      	b.n	8001778 <hal_uart_init+0xa8>
    } else if (config->parity == HAL_UART_PARITY_ODD) {
 8001764:	687b      	ldr	r3, [r7, #4]
 8001766:	7a9b      	ldrb	r3, [r3, #10]
 8001768:	2b02      	cmp	r3, #2
 800176a:	d105      	bne.n	8001778 <hal_uart_init+0xa8>
        uart->CR1 |= USART_CR1_PCE | USART_CR1_PS;
 800176c:	697b      	ldr	r3, [r7, #20]
 800176e:	68db      	ldr	r3, [r3, #12]
 8001770:	f443 62c0 	orr.w	r2, r3, #1536	@ 0x600
 8001774:	697b      	ldr	r3, [r7, #20]
 8001776:	60da      	str	r2, [r3, #12]
    }

    /* Enable TX and RX */
    uart->CR1 |= USART_CR1_TE | USART_CR1_RE;
 8001778:	697b      	ldr	r3, [r7, #20]
 800177a:	68db      	ldr	r3, [r3, #12]
 800177c:	f043 020c 	orr.w	r2, r3, #12
 8001780:	697b      	ldr	r3, [r7, #20]
 8001782:	60da      	str	r2, [r3, #12]

    /* Configure CR2: stop bits */
    uart->CR2 = 0;
 8001784:	697b      	ldr	r3, [r7, #20]
 8001786:	2200      	movs	r2, #0
 8001788:	611a      	str	r2, [r3, #16]
    if (config->stop_bits == 2) {
 800178a:	687b      	ldr	r3, [r7, #4]
 800178c:	7a5b      	ldrb	r3, [r3, #9]
 800178e:	2b02      	cmp	r3, #2
 8001790:	d105      	bne.n	800179e <hal_uart_init+0xce>
        uart->CR2 |= (2 << 12);  /* 2 stop bits */
 8001792:	697b      	ldr	r3, [r7, #20]
 8001794:	691b      	ldr	r3, [r3, #16]
 8001796:	f443 5200 	orr.w	r2, r3, #8192	@ 0x2000
 800179a:	697b      	ldr	r3, [r7, #20]
 800179c:	611a      	str	r2, [r3, #16]
    }

    /* Configure CR3: no flow control */
    uart->CR3 = 0;
 800179e:	697b      	ldr	r3, [r7, #20]
 80017a0:	2200      	movs	r2, #0
 80017a2:	615a      	str	r2, [r3, #20]

    /* Enable USART */
    uart->CR1 |= USART_CR1_UE;
 80017a4:	697b      	ldr	r3, [r7, #20]
 80017a6:	68db      	ldr	r3, [r3, #12]
 80017a8:	f443 5200 	orr.w	r2, r3, #8192	@ 0x2000
 80017ac:	697b      	ldr	r3, [r7, #20]
 80017ae:	60da      	str	r2, [r3, #12]
 80017b0:	e000      	b.n	80017b4 <hal_uart_init+0xe4>
        return;
 80017b2:	bf00      	nop
}
 80017b4:	371c      	adds	r7, #28
 80017b6:	46bd      	mov	sp, r7
 80017b8:	bc80      	pop	{r7}
 80017ba:	4770      	bx	lr
 80017bc:	40011000 	.word	0x40011000
 80017c0:	40023800 	.word	0x40023800
 80017c4:	40004400 	.word	0x40004400
 80017c8:	00f42400 	.word	0x00f42400

080017cc <semihosting_putc>:
/*---------------------------------------------------------------------------*/

static USART_TypeDef *g_printf_uart = USART2;

/* Semihosting for QEMU output */
static void semihosting_putc(char c) {
 80017cc:	b480      	push	{r7}
 80017ce:	b083      	sub	sp, #12
 80017d0:	af00      	add	r7, sp, #0
 80017d2:	4603      	mov	r3, r0
 80017d4:	71fb      	strb	r3, [r7, #7]
    /* ARM semihosting SYS_WRITEC */
    __asm volatile (
 80017d6:	1dfb      	adds	r3, r7, #7
 80017d8:	f04f 0003 	mov.w	r0, #3
 80017dc:	4619      	mov	r1, r3
 80017de:	beab      	bkpt	0x00ab
        "bkpt #0xAB\n"
        :
        : "r" (&c)
        : "r0", "r1", "memory"
      );
}
 80017e0:	bf00      	nop
 80017e2:	370c      	adds	r7, #12
 80017e4:	46bd      	mov	sp, r7
 80017e6:	bc80      	pop	{r7}
 80017e8:	4770      	bx	lr

080017ea <print_char>:
static void print_char(char c) {
 80017ea:	b580      	push	{r7, lr}
 80017ec:	b082      	sub	sp, #8
 80017ee:	af00      	add	r7, sp, #0
 80017f0:	4603      	mov	r3, r0
 80017f2:	71fb      	strb	r3, [r7, #7]
    semihosting_putc(c);
 80017f4:	79fb      	ldrb	r3, [r7, #7]
 80017f6:	4618      	mov	r0, r3
 80017f8:	f7ff ffe8 	bl	80017cc <semihosting_putc>
}
 80017fc:	bf00      	nop
 80017fe:	3708      	adds	r7, #8
 8001800:	46bd      	mov	sp, r7
 8001802:	bd80      	pop	{r7, pc}

08001804 <print_string>:

static void print_string(const char *s) {
 8001804:	b580      	push	{r7, lr}
 8001806:	b082      	sub	sp, #8
 8001808:	af00      	add	r7, sp, #0
 800180a:	6078      	str	r0, [r7, #4]
    while (*s) {
 800180c:	e00d      	b.n	800182a <print_string+0x26>
        if (*s == '\n') {
 800180e:	687b      	ldr	r3, [r7, #4]
 8001810:	781b      	ldrb	r3, [r3, #0]
 8001812:	2b0a      	cmp	r3, #10
 8001814:	d102      	bne.n	800181c <print_string+0x18>
            print_char('\r');
 8001816:	200d      	movs	r0, #13
 8001818:	f7ff ffe7 	bl	80017ea <print_char>
        }
        print_char(*s++);
 800181c:	687b      	ldr	r3, [r7, #4]
 800181e:	1c5a      	adds	r2, r3, #1
 8001820:	607a      	str	r2, [r7, #4]
 8001822:	781b      	ldrb	r3, [r3, #0]
 8001824:	4618      	mov	r0, r3
 8001826:	f7ff ffe0 	bl	80017ea <print_char>
    while (*s) {
 800182a:	687b      	ldr	r3, [r7, #4]
 800182c:	781b      	ldrb	r3, [r3, #0]
 800182e:	2b00      	cmp	r3, #0
 8001830:	d1ed      	bne.n	800180e <print_string+0xa>
    }
}
 8001832:	bf00      	nop
 8001834:	bf00      	nop
 8001836:	3708      	adds	r7, #8
 8001838:	46bd      	mov	sp, r7
 800183a:	bd80      	pop	{r7, pc}

0800183c <print_uint>:

static void print_uint(uint32_t val, int base, int min_width, char pad) {
 800183c:	b580      	push	{r7, lr}
 800183e:	b08a      	sub	sp, #40	@ 0x28
 8001840:	af00      	add	r7, sp, #0
 8001842:	60f8      	str	r0, [r7, #12]
 8001844:	60b9      	str	r1, [r7, #8]
 8001846:	607a      	str	r2, [r7, #4]
 8001848:	70fb      	strb	r3, [r7, #3]
    char buf[12];
    int i = 0;
 800184a:	2300      	movs	r3, #0
 800184c:	627b      	str	r3, [r7, #36]	@ 0x24
    const char *digits = "0123456789ABCDEF";
 800184e:	4b24      	ldr	r3, [pc, #144]	@ (80018e0 <print_uint+0xa4>)
 8001850:	623b      	str	r3, [r7, #32]

    if (val == 0) {
 8001852:	68fb      	ldr	r3, [r7, #12]
 8001854:	2b00      	cmp	r3, #0
 8001856:	d11e      	bne.n	8001896 <print_uint+0x5a>
        buf[i++] = '0';
 8001858:	6a7b      	ldr	r3, [r7, #36]	@ 0x24
 800185a:	1c5a      	adds	r2, r3, #1
 800185c:	627a      	str	r2, [r7, #36]	@ 0x24
 800185e:	3328      	adds	r3, #40	@ 0x28
 8001860:	443b      	add	r3, r7
 8001862:	2230      	movs	r2, #48	@ 0x30
 8001864:	f803 2c14 	strb.w	r2, [r3, #-20]
 8001868:	e021      	b.n	80018ae <print_uint+0x72>
    } else {
        while (val > 0) {
            buf[i++] = digits[val % base];
 800186a:	68ba      	ldr	r2, [r7, #8]
 800186c:	68fb      	ldr	r3, [r7, #12]
 800186e:	fbb3 f1f2 	udiv	r1, r3, r2
 8001872:	fb01 f202 	mul.w	r2, r1, r2
 8001876:	1a9b      	subs	r3, r3, r2
 8001878:	6a3a      	ldr	r2, [r7, #32]
 800187a:	441a      	add	r2, r3
 800187c:	6a7b      	ldr	r3, [r7, #36]	@ 0x24
 800187e:	1c59      	adds	r1, r3, #1
 8001880:	6279      	str	r1, [r7, #36]	@ 0x24
 8001882:	7812      	ldrb	r2, [r2, #0]
 8001884:	3328      	adds	r3, #40	@ 0x28
 8001886:	443b      	add	r3, r7
 8001888:	f803 2c14 	strb.w	r2, [r3, #-20]
            val /= base;
 800188c:	68bb      	ldr	r3, [r7, #8]
 800188e:	68fa      	ldr	r2, [r7, #12]
 8001890:	fbb2 f3f3 	udiv	r3, r2, r3
 8001894:	60fb      	str	r3, [r7, #12]
        while (val > 0) {
 8001896:	68fb      	ldr	r3, [r7, #12]
 8001898:	2b00      	cmp	r3, #0
 800189a:	d1e6      	bne.n	800186a <print_uint+0x2e>
        }
    }

    /* Pad if necessary */
    while (i < min_width) {
 800189c:	e007      	b.n	80018ae <print_uint+0x72>
        buf[i++] = pad;
 800189e:	6a7b      	ldr	r3, [r7, #36]	@ 0x24
 80018a0:	1c5a      	adds	r2, r3, #1
 80018a2:	627a      	str	r2, [r7, #36]	@ 0x24
 80018a4:	3328      	adds	r3, #40	@ 0x28
 80018a6:	443b      	add	r3, r7
 80018a8:	78fa      	ldrb	r2, [r7, #3]
 80018aa:	f803 2c14 	strb.w	r2, [r3, #-20]
    while (i < min_width) {
 80018ae:	6a7a      	ldr	r2, [r7, #36]	@ 0x24
 80018b0:	687b      	ldr	r3, [r7, #4]
 80018b2:	429a      	cmp	r2, r3
 80018b4:	dbf3      	blt.n	800189e <print_uint+0x62>
    }

    /* Print in reverse */
    while (i > 0) {
 80018b6:	e00a      	b.n	80018ce <print_uint+0x92>
        print_char(buf[--i]);
 80018b8:	6a7b      	ldr	r3, [r7, #36]	@ 0x24
 80018ba:	3b01      	subs	r3, #1
 80018bc:	627b      	str	r3, [r7, #36]	@ 0x24
 80018be:	f107 0214 	add.w	r2, r7, #20
 80018c2:	6a7b      	ldr	r3, [r7, #36]	@ 0x24
 80018c4:	4413      	add	r3, r2
 80018c6:	781b      	ldrb	r3, [r3, #0]
 80018c8:	4618      	mov	r0, r3
 80018ca:	f7ff ff8e 	bl	80017ea <print_char>
    while (i > 0) {
 80018ce:	6a7b      	ldr	r3, [r7, #36]	@ 0x24
 80018d0:	2b00      	cmp	r3, #0
 80018d2:	dcf1      	bgt.n	80018b8 <print_uint+0x7c>
    }
}
 80018d4:	bf00      	nop
 80018d6:	bf00      	nop
 80018d8:	3728      	adds	r7, #40	@ 0x28
 80018da:	46bd      	mov	sp, r7
 80018dc:	bd80      	pop	{r7, pc}
 80018de:	bf00      	nop
 80018e0:	08002104 	.word	0x08002104

080018e4 <print_int>:

static void print_int(int32_t val, int min_width, char pad) {
 80018e4:	b580      	push	{r7, lr}
 80018e6:	b084      	sub	sp, #16
 80018e8:	af00      	add	r7, sp, #0
 80018ea:	60f8      	str	r0, [r7, #12]
 80018ec:	60b9      	str	r1, [r7, #8]
 80018ee:	4613      	mov	r3, r2
 80018f0:	71fb      	strb	r3, [r7, #7]
    if (val < 0) {
 80018f2:	68fb      	ldr	r3, [r7, #12]
 80018f4:	2b00      	cmp	r3, #0
 80018f6:	da0b      	bge.n	8001910 <print_int+0x2c>
        print_char('-');
 80018f8:	202d      	movs	r0, #45	@ 0x2d
 80018fa:	f7ff ff76 	bl	80017ea <print_char>
        val = -val;
 80018fe:	68fb      	ldr	r3, [r7, #12]
 8001900:	425b      	negs	r3, r3
 8001902:	60fb      	str	r3, [r7, #12]
        if (min_width > 0) min_width--;
 8001904:	68bb      	ldr	r3, [r7, #8]
 8001906:	2b00      	cmp	r3, #0
 8001908:	dd02      	ble.n	8001910 <print_int+0x2c>
 800190a:	68bb      	ldr	r3, [r7, #8]
 800190c:	3b01      	subs	r3, #1
 800190e:	60bb      	str	r3, [r7, #8]
    }
    print_uint((uint32_t)val, 10, min_width, pad);
 8001910:	68f8      	ldr	r0, [r7, #12]
 8001912:	79fb      	ldrb	r3, [r7, #7]
 8001914:	68ba      	ldr	r2, [r7, #8]
 8001916:	210a      	movs	r1, #10
 8001918:	f7ff ff90 	bl	800183c <print_uint>
}
 800191c:	bf00      	nop
 800191e:	3710      	adds	r7, #16
 8001920:	46bd      	mov	sp, r7
 8001922:	bd80      	pop	{r7, pc}

08001924 <hal_printf>:

void hal_printf(const char *fmt, ...) {
 8001924:	b40f      	push	{r0, r1, r2, r3}
 8001926:	b580      	push	{r7, lr}
 8001928:	b084      	sub	sp, #16
 800192a:	af00      	add	r7, sp, #0
    va_list args;
    va_start(args, fmt);
 800192c:	f107 031c 	add.w	r3, r7, #28
 8001930:	607b      	str	r3, [r7, #4]

    while (*fmt) {
 8001932:	e0a6      	b.n	8001a82 <hal_printf+0x15e>
        if (*fmt == '%') {
 8001934:	69bb      	ldr	r3, [r7, #24]
 8001936:	781b      	ldrb	r3, [r3, #0]
 8001938:	2b25      	cmp	r3, #37	@ 0x25
 800193a:	f040 8093 	bne.w	8001a64 <hal_printf+0x140>
            fmt++;
 800193e:	69bb      	ldr	r3, [r7, #24]
 8001940:	3301      	adds	r3, #1
 8001942:	61bb      	str	r3, [r7, #24]

            /* Parse flags */
            char pad = ' ';
 8001944:	2320      	movs	r3, #32
 8001946:	73fb      	strb	r3, [r7, #15]
            int width = 0;
 8001948:	2300      	movs	r3, #0
 800194a:	60bb      	str	r3, [r7, #8]

            if (*fmt == '0') {
 800194c:	69bb      	ldr	r3, [r7, #24]
 800194e:	781b      	ldrb	r3, [r3, #0]
 8001950:	2b30      	cmp	r3, #48	@ 0x30
 8001952:	d113      	bne.n	800197c <hal_printf+0x58>
                pad = '0';
 8001954:	2330      	movs	r3, #48	@ 0x30
 8001956:	73fb      	strb	r3, [r7, #15]
                fmt++;
 8001958:	69bb      	ldr	r3, [r7, #24]
 800195a:	3301      	adds	r3, #1
 800195c:	61bb      	str	r3, [r7, #24]
            }

            /* Parse width */
            while (*fmt >= '0' && *fmt <= '9') {
 800195e:	e00d      	b.n	800197c <hal_printf+0x58>
                width = width * 10 + (*fmt - '0');
 8001960:	68ba      	ldr	r2, [r7, #8]
 8001962:	4613      	mov	r3, r2
 8001964:	009b      	lsls	r3, r3, #2
 8001966:	4413      	add	r3, r2
 8001968:	005b      	lsls	r3, r3, #1
 800196a:	461a      	mov	r2, r3
 800196c:	69bb      	ldr	r3, [r7, #24]
 800196e:	781b      	ldrb	r3, [r3, #0]
 8001970:	3b30      	subs	r3, #48	@ 0x30
 8001972:	4413      	add	r3, r2
 8001974:	60bb      	str	r3, [r7, #8]
                fmt++;
 8001976:	69bb      	ldr	r3, [r7, #24]
 8001978:	3301      	adds	r3, #1
 800197a:	61bb      	str	r3, [r7, #24]
            while (*fmt >= '0' && *fmt <= '9') {
 800197c:	69bb      	ldr	r3, [r7, #24]
 800197e:	781b      	ldrb	r3, [r3, #0]
 8001980:	2b2f      	cmp	r3, #47	@ 0x2f
 8001982:	d903      	bls.n	800198c <hal_printf+0x68>
 8001984:	69bb      	ldr	r3, [r7, #24]
 8001986:	781b      	ldrb	r3, [r3, #0]
 8001988:	2b39      	cmp	r3, #57	@ 0x39
 800198a:	d9e9      	bls.n	8001960 <hal_printf+0x3c>
            }

            switch (*fmt) {
 800198c:	69bb      	ldr	r3, [r7, #24]
 800198e:	781b      	ldrb	r3, [r3, #0]
 8001990:	2b78      	cmp	r3, #120	@ 0x78
 8001992:	d032      	beq.n	80019fa <hal_printf+0xd6>
 8001994:	2b78      	cmp	r3, #120	@ 0x78
 8001996:	dc5c      	bgt.n	8001a52 <hal_printf+0x12e>
 8001998:	2b75      	cmp	r3, #117	@ 0x75
 800199a:	d024      	beq.n	80019e6 <hal_printf+0xc2>
 800199c:	2b75      	cmp	r3, #117	@ 0x75
 800199e:	dc58      	bgt.n	8001a52 <hal_printf+0x12e>
 80019a0:	2b73      	cmp	r3, #115	@ 0x73
 80019a2:	d041      	beq.n	8001a28 <hal_printf+0x104>
 80019a4:	2b73      	cmp	r3, #115	@ 0x73
 80019a6:	dc54      	bgt.n	8001a52 <hal_printf+0x12e>
 80019a8:	2b70      	cmp	r3, #112	@ 0x70
 80019aa:	d030      	beq.n	8001a0e <hal_printf+0xea>
 80019ac:	2b70      	cmp	r3, #112	@ 0x70
 80019ae:	dc50      	bgt.n	8001a52 <hal_printf+0x12e>
 80019b0:	2b69      	cmp	r3, #105	@ 0x69
 80019b2:	d00e      	beq.n	80019d2 <hal_printf+0xae>
 80019b4:	2b69      	cmp	r3, #105	@ 0x69
 80019b6:	dc4c      	bgt.n	8001a52 <hal_printf+0x12e>
 80019b8:	2b64      	cmp	r3, #100	@ 0x64
 80019ba:	d00a      	beq.n	80019d2 <hal_printf+0xae>
 80019bc:	2b64      	cmp	r3, #100	@ 0x64
 80019be:	dc48      	bgt.n	8001a52 <hal_printf+0x12e>
 80019c0:	2b63      	cmp	r3, #99	@ 0x63
 80019c2:	d039      	beq.n	8001a38 <hal_printf+0x114>
 80019c4:	2b63      	cmp	r3, #99	@ 0x63
 80019c6:	dc44      	bgt.n	8001a52 <hal_printf+0x12e>
 80019c8:	2b25      	cmp	r3, #37	@ 0x25
 80019ca:	d03e      	beq.n	8001a4a <hal_printf+0x126>
 80019cc:	2b58      	cmp	r3, #88	@ 0x58
 80019ce:	d014      	beq.n	80019fa <hal_printf+0xd6>
 80019d0:	e03f      	b.n	8001a52 <hal_printf+0x12e>
                case 'd':
                case 'i':
                    print_int(va_arg(args, int32_t), width, pad);
 80019d2:	687b      	ldr	r3, [r7, #4]
 80019d4:	1d1a      	adds	r2, r3, #4
 80019d6:	607a      	str	r2, [r7, #4]
 80019d8:	681b      	ldr	r3, [r3, #0]
 80019da:	7bfa      	ldrb	r2, [r7, #15]
 80019dc:	68b9      	ldr	r1, [r7, #8]
 80019de:	4618      	mov	r0, r3
 80019e0:	f7ff ff80 	bl	80018e4 <print_int>
                    break;
 80019e4:	e04a      	b.n	8001a7c <hal_printf+0x158>

                case 'u':
                    print_uint(va_arg(args, uint32_t), 10, width, pad);
 80019e6:	687b      	ldr	r3, [r7, #4]
 80019e8:	1d1a      	adds	r2, r3, #4
 80019ea:	607a      	str	r2, [r7, #4]
 80019ec:	6818      	ldr	r0, [r3, #0]
 80019ee:	7bfb      	ldrb	r3, [r7, #15]
 80019f0:	68ba      	ldr	r2, [r7, #8]
 80019f2:	210a      	movs	r1, #10
 80019f4:	f7ff ff22 	bl	800183c <print_uint>
                    break;
 80019f8:	e040      	b.n	8001a7c <hal_printf+0x158>

                case 'x':
                case 'X':
                    print_uint(va_arg(args, uint32_t), 16, width, pad);
 80019fa:	687b      	ldr	r3, [r7, #4]
 80019fc:	1d1a      	adds	r2, r3, #4
 80019fe:	607a      	str	r2, [r7, #4]
 8001a00:	6818      	ldr	r0, [r3, #0]
 8001a02:	7bfb      	ldrb	r3, [r7, #15]
 8001a04:	68ba      	ldr	r2, [r7, #8]
 8001a06:	2110      	movs	r1, #16
 8001a08:	f7ff ff18 	bl	800183c <print_uint>
                    break;
 8001a0c:	e036      	b.n	8001a7c <hal_printf+0x158>

                case 'p':
                    print_string("0x");
 8001a0e:	4823      	ldr	r0, [pc, #140]	@ (8001a9c <hal_printf+0x178>)
 8001a10:	f7ff fef8 	bl	8001804 <print_string>
                    print_uint(va_arg(args, uint32_t), 16, 8, '0');
 8001a14:	687b      	ldr	r3, [r7, #4]
 8001a16:	1d1a      	adds	r2, r3, #4
 8001a18:	607a      	str	r2, [r7, #4]
 8001a1a:	6818      	ldr	r0, [r3, #0]
 8001a1c:	2330      	movs	r3, #48	@ 0x30
 8001a1e:	2208      	movs	r2, #8
 8001a20:	2110      	movs	r1, #16
 8001a22:	f7ff ff0b 	bl	800183c <print_uint>
                    break;
 8001a26:	e029      	b.n	8001a7c <hal_printf+0x158>

                case 's':
                    print_string(va_arg(args, const char *));
 8001a28:	687b      	ldr	r3, [r7, #4]
 8001a2a:	1d1a      	adds	r2, r3, #4
 8001a2c:	607a      	str	r2, [r7, #4]
 8001a2e:	681b      	ldr	r3, [r3, #0]
 8001a30:	4618      	mov	r0, r3
 8001a32:	f7ff fee7 	bl	8001804 <print_string>
                    break;
 8001a36:	e021      	b.n	8001a7c <hal_printf+0x158>

                case 'c':
                    print_char((char)va_arg(args, int));
 8001a38:	687b      	ldr	r3, [r7, #4]
 8001a3a:	1d1a      	adds	r2, r3, #4
 8001a3c:	607a      	str	r2, [r7, #4]
 8001a3e:	681b      	ldr	r3, [r3, #0]
 8001a40:	b2db      	uxtb	r3, r3
 8001a42:	4618      	mov	r0, r3
 8001a44:	f7ff fed1 	bl	80017ea <print_char>
                    break;
 8001a48:	e018      	b.n	8001a7c <hal_printf+0x158>

                case '%':
                    print_char('%');
 8001a4a:	2025      	movs	r0, #37	@ 0x25
 8001a4c:	f7ff fecd 	bl	80017ea <print_char>
                    break;
 8001a50:	e014      	b.n	8001a7c <hal_printf+0x158>

                default:
                    print_char('%');
 8001a52:	2025      	movs	r0, #37	@ 0x25
 8001a54:	f7ff fec9 	bl	80017ea <print_char>
                    print_char(*fmt);
 8001a58:	69bb      	ldr	r3, [r7, #24]
 8001a5a:	781b      	ldrb	r3, [r3, #0]
 8001a5c:	4618      	mov	r0, r3
 8001a5e:	f7ff fec4 	bl	80017ea <print_char>
                    break;
 8001a62:	e00b      	b.n	8001a7c <hal_printf+0x158>
            }
        } else {
            if (*fmt == '\n') {
 8001a64:	69bb      	ldr	r3, [r7, #24]
 8001a66:	781b      	ldrb	r3, [r3, #0]
 8001a68:	2b0a      	cmp	r3, #10
 8001a6a:	d102      	bne.n	8001a72 <hal_printf+0x14e>
                print_char('\r');
 8001a6c:	200d      	movs	r0, #13
 8001a6e:	f7ff febc 	bl	80017ea <print_char>
            }
            print_char(*fmt);
 8001a72:	69bb      	ldr	r3, [r7, #24]
 8001a74:	781b      	ldrb	r3, [r3, #0]
 8001a76:	4618      	mov	r0, r3
 8001a78:	f7ff feb7 	bl	80017ea <print_char>
        }
        fmt++;
 8001a7c:	69bb      	ldr	r3, [r7, #24]
 8001a7e:	3301      	adds	r3, #1
 8001a80:	61bb      	str	r3, [r7, #24]
    while (*fmt) {
 8001a82:	69bb      	ldr	r3, [r7, #24]
 8001a84:	781b      	ldrb	r3, [r3, #0]
 8001a86:	2b00      	cmp	r3, #0
 8001a88:	f47f af54 	bne.w	8001934 <hal_printf+0x10>
    }

    va_end(args);
}
 8001a8c:	bf00      	nop
 8001a8e:	bf00      	nop
 8001a90:	3710      	adds	r7, #16
 8001a92:	46bd      	mov	sp, r7
 8001a94:	e8bd 4080 	ldmia.w	sp!, {r7, lr}
 8001a98:	b004      	add	sp, #16
 8001a9a:	4770      	bx	lr
 8001a9c:	08002118 	.word	0x08002118

08001aa0 <hal_gpio_enable_clock>:

/*---------------------------------------------------------------------------*/
/* GPIO Clock Enable */
/*---------------------------------------------------------------------------*/

void hal_gpio_enable_clock(GPIO_TypeDef *port) {
 8001aa0:	b480      	push	{r7}
 8001aa2:	b083      	sub	sp, #12
 8001aa4:	af00      	add	r7, sp, #0
 8001aa6:	6078      	str	r0, [r7, #4]
    if (port == GPIOA) {
 8001aa8:	687b      	ldr	r3, [r7, #4]
 8001aaa:	4a17      	ldr	r2, [pc, #92]	@ (8001b08 <hal_gpio_enable_clock+0x68>)
 8001aac:	4293      	cmp	r3, r2
 8001aae:	d106      	bne.n	8001abe <hal_gpio_enable_clock+0x1e>
        RCC->AHB1ENR |= RCC_AHB1ENR_GPIOAEN;
 8001ab0:	4b16      	ldr	r3, [pc, #88]	@ (8001b0c <hal_gpio_enable_clock+0x6c>)
 8001ab2:	6b1b      	ldr	r3, [r3, #48]	@ 0x30
 8001ab4:	4a15      	ldr	r2, [pc, #84]	@ (8001b0c <hal_gpio_enable_clock+0x6c>)
 8001ab6:	f043 0301 	orr.w	r3, r3, #1
 8001aba:	6313      	str	r3, [r2, #48]	@ 0x30
    } else if (port == GPIOC) {
        RCC->AHB1ENR |= RCC_AHB1ENR_GPIOCEN;
    } else if (port == GPIOD) {
        RCC->AHB1ENR |= RCC_AHB1ENR_GPIODEN;
    }
}
 8001abc:	e01f      	b.n	8001afe <hal_gpio_enable_clock+0x5e>
    } else if (port == GPIOB) {
 8001abe:	687b      	ldr	r3, [r7, #4]
 8001ac0:	4a13      	ldr	r2, [pc, #76]	@ (8001b10 <hal_gpio_enable_clock+0x70>)
 8001ac2:	4293      	cmp	r3, r2
 8001ac4:	d106      	bne.n	8001ad4 <hal_gpio_enable_clock+0x34>
        RCC->AHB1ENR |= RCC_AHB1ENR_GPIOBEN;
 8001ac6:	4b11      	ldr	r3, [pc, #68]	@ (8001b0c <hal_gpio_enable_clock+0x6c>)
 8001ac8:	6b1b      	ldr	r3, [r3, #48]	@ 0x30
 8001aca:	4a10      	ldr	r2, [pc, #64]	@ (8001b0c <hal_gpio_enable_clock+0x6c>)
 8001acc:	f043 0302 	orr.w	r3, r3, #2
 8001ad0:	6313      	str	r3, [r2, #48]	@ 0x30
}
 8001ad2:	e014      	b.n	8001afe <hal_gpio_enable_clock+0x5e>
    } else if (port == GPIOC) {
 8001ad4:	687b      	ldr	r3, [r7, #4]
 8001ad6:	4a0f      	ldr	r2, [pc, #60]	@ (8001b14 <hal_gpio_enable_clock+0x74>)
 8001ad8:	4293      	cmp	r3, r2
 8001ada:	d106      	bne.n	8001aea <hal_gpio_enable_clock+0x4a>
        RCC->AHB1ENR |= RCC_AHB1ENR_GPIOCEN;
 8001adc:	4b0b      	ldr	r3, [pc, #44]	@ (8001b0c <hal_gpio_enable_clock+0x6c>)
 8001ade:	6b1b      	ldr	r3, [r3, #48]	@ 0x30
 8001ae0:	4a0a      	ldr	r2, [pc, #40]	@ (8001b0c <hal_gpio_enable_clock+0x6c>)
 8001ae2:	f043 0304 	orr.w	r3, r3, #4
 8001ae6:	6313      	str	r3, [r2, #48]	@ 0x30
}
 8001ae8:	e009      	b.n	8001afe <hal_gpio_enable_clock+0x5e>
    } else if (port == GPIOD) {
 8001aea:	687b      	ldr	r3, [r7, #4]
 8001aec:	4a0a      	ldr	r2, [pc, #40]	@ (8001b18 <hal_gpio_enable_clock+0x78>)
 8001aee:	4293      	cmp	r3, r2
 8001af0:	d105      	bne.n	8001afe <hal_gpio_enable_clock+0x5e>
        RCC->AHB1ENR |= RCC_AHB1ENR_GPIODEN;
 8001af2:	4b06      	ldr	r3, [pc, #24]	@ (8001b0c <hal_gpio_enable_clock+0x6c>)
 8001af4:	6b1b      	ldr	r3, [r3, #48]	@ 0x30
 8001af6:	4a05      	ldr	r2, [pc, #20]	@ (8001b0c <hal_gpio_enable_clock+0x6c>)
 8001af8:	f043 0308 	orr.w	r3, r3, #8
 8001afc:	6313      	str	r3, [r2, #48]	@ 0x30
}
 8001afe:	bf00      	nop
 8001b00:	370c      	adds	r7, #12
 8001b02:	46bd      	mov	sp, r7
 8001b04:	bc80      	pop	{r7}
 8001b06:	4770      	bx	lr
 8001b08:	40020000 	.word	0x40020000
 8001b0c:	40023800 	.word	0x40023800
 8001b10:	40020400 	.word	0x40020400
 8001b14:	40020800 	.word	0x40020800
 8001b18:	40020c00 	.word	0x40020c00

08001b1c <hal_gpio_init>:

/*---------------------------------------------------------------------------*/
/* GPIO Initialization */
/*---------------------------------------------------------------------------*/

void hal_gpio_init(const hal_gpio_config_t *config) {
 8001b1c:	b580      	push	{r7, lr}
 8001b1e:	b088      	sub	sp, #32
 8001b20:	af00      	add	r7, sp, #0
 8001b22:	6078      	str	r0, [r7, #4]
    if (config == NULL || config->port == NULL || config->pin > 15) {
 8001b24:	687b      	ldr	r3, [r7, #4]
 8001b26:	2b00      	cmp	r3, #0
 8001b28:	f000 80a6 	beq.w	8001c78 <hal_gpio_init+0x15c>
 8001b2c:	687b      	ldr	r3, [r7, #4]
 8001b2e:	681b      	ldr	r3, [r3, #0]
 8001b30:	2b00      	cmp	r3, #0
 8001b32:	f000 80a1 	beq.w	8001c78 <hal_gpio_init+0x15c>
 8001b36:	687b      	ldr	r3, [r7, #4]
 8001b38:	791b      	ldrb	r3, [r3, #4]
 8001b3a:	2b0f      	cmp	r3, #15
 8001b3c:	f200 809c 	bhi.w	8001c78 <hal_gpio_init+0x15c>
        return;
    }

    GPIO_TypeDef *port = config->port;
 8001b40:	687b      	ldr	r3, [r7, #4]
 8001b42:	681b      	ldr	r3, [r3, #0]
 8001b44:	61fb      	str	r3, [r7, #28]
    uint8_t pin = config->pin;
 8001b46:	687b      	ldr	r3, [r7, #4]
 8001b48:	791b      	ldrb	r3, [r3, #4]
 8001b4a:	76fb      	strb	r3, [r7, #27]

    /* Enable clock for this port */
    hal_gpio_enable_clock(port);
 8001b4c:	69f8      	ldr	r0, [r7, #28]
 8001b4e:	f7ff ffa7 	bl	8001aa0 <hal_gpio_enable_clock>

    /* Configure mode (2 bits per pin) */
    uint32_t pos = pin * 2;
 8001b52:	7efb      	ldrb	r3, [r7, #27]
 8001b54:	005b      	lsls	r3, r3, #1
 8001b56:	617b      	str	r3, [r7, #20]
    port->MODER &= ~(0x3 << pos);
 8001b58:	69fb      	ldr	r3, [r7, #28]
 8001b5a:	681b      	ldr	r3, [r3, #0]
 8001b5c:	2103      	movs	r1, #3
 8001b5e:	697a      	ldr	r2, [r7, #20]
 8001b60:	fa01 f202 	lsl.w	r2, r1, r2
 8001b64:	43d2      	mvns	r2, r2
 8001b66:	401a      	ands	r2, r3
 8001b68:	69fb      	ldr	r3, [r7, #28]
 8001b6a:	601a      	str	r2, [r3, #0]
    port->MODER |= (config->mode << pos);
 8001b6c:	69fb      	ldr	r3, [r7, #28]
 8001b6e:	681b      	ldr	r3, [r3, #0]
 8001b70:	687a      	ldr	r2, [r7, #4]
 8001b72:	7952      	ldrb	r2, [r2, #5]
 8001b74:	4611      	mov	r1, r2
 8001b76:	697a      	ldr	r2, [r7, #20]
 8001b78:	fa01 f202 	lsl.w	r2, r1, r2
 8001b7c:	431a      	orrs	r2, r3
 8001b7e:	69fb      	ldr	r3, [r7, #28]
 8001b80:	601a      	str	r2, [r3, #0]

    /* Configure output type (1 bit per pin) */
    if (config->mode == GPIO_MODE_OUTPUT || config->mode == GPIO_MODE_AF) {
 8001b82:	687b      	ldr	r3, [r7, #4]
 8001b84:	795b      	ldrb	r3, [r3, #5]
 8001b86:	2b01      	cmp	r3, #1
 8001b88:	d003      	beq.n	8001b92 <hal_gpio_init+0x76>
 8001b8a:	687b      	ldr	r3, [r7, #4]
 8001b8c:	795b      	ldrb	r3, [r3, #5]
 8001b8e:	2b02      	cmp	r3, #2
 8001b90:	d12c      	bne.n	8001bec <hal_gpio_init+0xd0>
        if (config->otype == GPIO_OTYPE_OD) {
 8001b92:	687b      	ldr	r3, [r7, #4]
 8001b94:	799b      	ldrb	r3, [r3, #6]
 8001b96:	2b01      	cmp	r3, #1
 8001b98:	d109      	bne.n	8001bae <hal_gpio_init+0x92>
            port->OTYPER |= (1 << pin);
 8001b9a:	69fb      	ldr	r3, [r7, #28]
 8001b9c:	685b      	ldr	r3, [r3, #4]
 8001b9e:	7efa      	ldrb	r2, [r7, #27]
 8001ba0:	2101      	movs	r1, #1
 8001ba2:	fa01 f202 	lsl.w	r2, r1, r2
 8001ba6:	431a      	orrs	r2, r3
 8001ba8:	69fb      	ldr	r3, [r7, #28]
 8001baa:	605a      	str	r2, [r3, #4]
 8001bac:	e009      	b.n	8001bc2 <hal_gpio_init+0xa6>
        } else {
            port->OTYPER &= ~(1 << pin);
 8001bae:	69fb      	ldr	r3, [r7, #28]
 8001bb0:	685b      	ldr	r3, [r3, #4]
 8001bb2:	7efa      	ldrb	r2, [r7, #27]
 8001bb4:	2101      	movs	r1, #1
 8001bb6:	fa01 f202 	lsl.w	r2, r1, r2
 8001bba:	43d2      	mvns	r2, r2
 8001bbc:	401a      	ands	r2, r3
 8001bbe:	69fb      	ldr	r3, [r7, #28]
 8001bc0:	605a      	str	r2, [r3, #4]
        }

        /* Configure speed (2 bits per pin) */
        port->OSPEEDR &= ~(0x3 << pos);
 8001bc2:	69fb      	ldr	r3, [r7, #28]
 8001bc4:	689b      	ldr	r3, [r3, #8]
 8001bc6:	2103      	movs	r1, #3
 8001bc8:	697a      	ldr	r2, [r7, #20]
 8001bca:	fa01 f202 	lsl.w	r2, r1, r2
 8001bce:	43d2      	mvns	r2, r2
 8001bd0:	401a      	ands	r2, r3
 8001bd2:	69fb      	ldr	r3, [r7, #28]
 8001bd4:	609a      	str	r2, [r3, #8]
        port->OSPEEDR |= (config->speed << pos);
 8001bd6:	69fb      	ldr	r3, [r7, #28]
 8001bd8:	689b      	ldr	r3, [r3, #8]
 8001bda:	687a      	ldr	r2, [r7, #4]
 8001bdc:	79d2      	ldrb	r2, [r2, #7]
 8001bde:	4611      	mov	r1, r2
 8001be0:	697a      	ldr	r2, [r7, #20]
 8001be2:	fa01 f202 	lsl.w	r2, r1, r2
 8001be6:	431a      	orrs	r2, r3
 8001be8:	69fb      	ldr	r3, [r7, #28]
 8001bea:	609a      	str	r2, [r3, #8]
    }

    /* Configure pull-up/pull-down (2 bits per pin) */
    port->PUPDR &= ~(0x3 << pos);
 8001bec:	69fb      	ldr	r3, [r7, #28]
 8001bee:	68db      	ldr	r3, [r3, #12]
 8001bf0:	2103      	movs	r1, #3
 8001bf2:	697a      	ldr	r2, [r7, #20]
 8001bf4:	fa01 f202 	lsl.w	r2, r1, r2
 8001bf8:	43d2      	mvns	r2, r2
 8001bfa:	401a      	ands	r2, r3
 8001bfc:	69fb      	ldr	r3, [r7, #28]
 8001bfe:	60da      	str	r2, [r3, #12]
    port->PUPDR |= (config->pupd << pos);
 8001c00:	69fb      	ldr	r3, [r7, #28]
 8001c02:	68db      	ldr	r3, [r3, #12]
 8001c04:	687a      	ldr	r2, [r7, #4]
 8001c06:	7a12      	ldrb	r2, [r2, #8]
 8001c08:	4611      	mov	r1, r2
 8001c0a:	697a      	ldr	r2, [r7, #20]
 8001c0c:	fa01 f202 	lsl.w	r2, r1, r2
 8001c10:	431a      	orrs	r2, r3
 8001c12:	69fb      	ldr	r3, [r7, #28]
 8001c14:	60da      	str	r2, [r3, #12]

    /* Configure alternate function (4 bits per pin) */
    if (config->mode == GPIO_MODE_AF) {
 8001c16:	687b      	ldr	r3, [r7, #4]
 8001c18:	795b      	ldrb	r3, [r3, #5]
 8001c1a:	2b02      	cmp	r3, #2
 8001c1c:	d12d      	bne.n	8001c7a <hal_gpio_init+0x15e>
        uint32_t afr_idx = pin >> 3;        /* 0 for pins 0-7, 1 for pins 8-15 */
 8001c1e:	7efb      	ldrb	r3, [r7, #27]
 8001c20:	08db      	lsrs	r3, r3, #3
 8001c22:	b2db      	uxtb	r3, r3
 8001c24:	613b      	str	r3, [r7, #16]
        uint32_t afr_pos = (pin & 0x7) * 4; /* Position within AFR register */
 8001c26:	7efb      	ldrb	r3, [r7, #27]
 8001c28:	f003 0307 	and.w	r3, r3, #7
 8001c2c:	009b      	lsls	r3, r3, #2
 8001c2e:	60fb      	str	r3, [r7, #12]

        port->AFR[afr_idx] &= ~(0xF << afr_pos);
 8001c30:	69fb      	ldr	r3, [r7, #28]
 8001c32:	693a      	ldr	r2, [r7, #16]
 8001c34:	3208      	adds	r2, #8
 8001c36:	f853 3022 	ldr.w	r3, [r3, r2, lsl #2]
 8001c3a:	210f      	movs	r1, #15
 8001c3c:	68fa      	ldr	r2, [r7, #12]
 8001c3e:	fa01 f202 	lsl.w	r2, r1, r2
 8001c42:	43d2      	mvns	r2, r2
 8001c44:	ea03 0102 	and.w	r1, r3, r2
 8001c48:	69fb      	ldr	r3, [r7, #28]
 8001c4a:	693a      	ldr	r2, [r7, #16]
 8001c4c:	3208      	adds	r2, #8
 8001c4e:	f843 1022 	str.w	r1, [r3, r2, lsl #2]
        port->AFR[afr_idx] |= (config->af << afr_pos);
 8001c52:	69fb      	ldr	r3, [r7, #28]
 8001c54:	693a      	ldr	r2, [r7, #16]
 8001c56:	3208      	adds	r2, #8
 8001c58:	f853 3022 	ldr.w	r3, [r3, r2, lsl #2]
 8001c5c:	687a      	ldr	r2, [r7, #4]
 8001c5e:	7a52      	ldrb	r2, [r2, #9]
 8001c60:	4611      	mov	r1, r2
 8001c62:	68fa      	ldr	r2, [r7, #12]
 8001c64:	fa01 f202 	lsl.w	r2, r1, r2
 8001c68:	ea43 0102 	orr.w	r1, r3, r2
 8001c6c:	69fb      	ldr	r3, [r7, #28]
 8001c6e:	693a      	ldr	r2, [r7, #16]
 8001c70:	3208      	adds	r2, #8
 8001c72:	f843 1022 	str.w	r1, [r3, r2, lsl #2]
 8001c76:	e000      	b.n	8001c7a <hal_gpio_init+0x15e>
        return;
 8001c78:	bf00      	nop
    }
}
 8001c7a:	3720      	adds	r7, #32
 8001c7c:	46bd      	mov	sp, r7
 8001c7e:	bd80      	pop	{r7, pc}

08001c80 <hal_gpio_toggle>:

void hal_gpio_clear(GPIO_TypeDef *port, uint8_t pin) {
    port->BSRR = (1 << (pin + 16));  /* Set bit in upper 16 bits = reset pin */
}

void hal_gpio_toggle(GPIO_TypeDef *port, uint8_t pin) {
 8001c80:	b480      	push	{r7}
 8001c82:	b083      	sub	sp, #12
 8001c84:	af00      	add	r7, sp, #0
 8001c86:	6078      	str	r0, [r7, #4]
 8001c88:	460b      	mov	r3, r1
 8001c8a:	70fb      	strb	r3, [r7, #3]
    port->ODR ^= (1 << pin);
 8001c8c:	687b      	ldr	r3, [r7, #4]
 8001c8e:	695b      	ldr	r3, [r3, #20]
 8001c90:	78fa      	ldrb	r2, [r7, #3]
 8001c92:	2101      	movs	r1, #1
 8001c94:	fa01 f202 	lsl.w	r2, r1, r2
 8001c98:	405a      	eors	r2, r3
 8001c9a:	687b      	ldr	r3, [r7, #4]
 8001c9c:	615a      	str	r2, [r3, #20]
}
 8001c9e:	bf00      	nop
 8001ca0:	370c      	adds	r7, #12
 8001ca2:	46bd      	mov	sp, r7
 8001ca4:	bc80      	pop	{r7}
 8001ca6:	4770      	bx	lr

08001ca8 <hal_system_init>:

/*---------------------------------------------------------------------------*/
/* System Initialization */
/*---------------------------------------------------------------------------*/

void hal_system_init(void) {
 8001ca8:	b580      	push	{r7, lr}
 8001caa:	b08c      	sub	sp, #48	@ 0x30
 8001cac:	af00      	add	r7, sp, #0
    /* Initialize system clocks */
    /* QEMU starts with 16MHz HSI clock, which is fine for our purposes */

    /* Configure UART GPIO pins */
    /* USART2: PA2 (TX), PA3 (RX) */
    hal_gpio_config_t uart_tx = {
 8001cae:	4a17      	ldr	r2, [pc, #92]	@ (8001d0c <hal_system_init+0x64>)
 8001cb0:	f107 0324 	add.w	r3, r7, #36	@ 0x24
 8001cb4:	ca07      	ldmia	r2, {r0, r1, r2}
 8001cb6:	e883 0007 	stmia.w	r3, {r0, r1, r2}
        .otype = GPIO_OTYPE_PP,
        .speed = GPIO_SPEED_HIGH,
        .pupd = GPIO_PUPD_NONE,
        .af = 7  /* AF7 = USART1-3 */
    };
    hal_gpio_init(&uart_tx);
 8001cba:	f107 0324 	add.w	r3, r7, #36	@ 0x24
 8001cbe:	4618      	mov	r0, r3
 8001cc0:	f7ff ff2c 	bl	8001b1c <hal_gpio_init>

    hal_gpio_config_t uart_rx = {
 8001cc4:	4a12      	ldr	r2, [pc, #72]	@ (8001d10 <hal_system_init+0x68>)
 8001cc6:	f107 0318 	add.w	r3, r7, #24
 8001cca:	ca07      	ldmia	r2, {r0, r1, r2}
 8001ccc:	e883 0007 	stmia.w	r3, {r0, r1, r2}
        .otype = GPIO_OTYPE_PP,
        .speed = GPIO_SPEED_HIGH,
        .pupd = GPIO_PUPD_UP,
        .af = 7
    };
    hal_gpio_init(&uart_rx);
 8001cd0:	f107 0318 	add.w	r3, r7, #24
 8001cd4:	4618      	mov	r0, r3
 8001cd6:	f7ff ff21 	bl	8001b1c <hal_gpio_init>

    /* Initialize UART */
    hal_uart_config_t uart_config = {
 8001cda:	4a0e      	ldr	r2, [pc, #56]	@ (8001d14 <hal_system_init+0x6c>)
 8001cdc:	f107 030c 	add.w	r3, r7, #12
 8001ce0:	ca07      	ldmia	r2, {r0, r1, r2}
 8001ce2:	e883 0007 	stmia.w	r3, {r0, r1, r2}
        .baud = RTOS_UART_BAUD,
        .word_length = 8,
        .stop_bits = 1,
        .parity = HAL_UART_PARITY_NONE
    };
    hal_uart_init(&uart_config);
 8001ce6:	f107 030c 	add.w	r3, r7, #12
 8001cea:	4618      	mov	r0, r3
 8001cec:	f7ff fcf0 	bl	80016d0 <hal_uart_init>

    /* Configure LED GPIO (PA5 for Netduino Plus 2) */
    hal_gpio_config_t led = {
 8001cf0:	4a09      	ldr	r2, [pc, #36]	@ (8001d18 <hal_system_init+0x70>)
 8001cf2:	463b      	mov	r3, r7
 8001cf4:	ca07      	ldmia	r2, {r0, r1, r2}
 8001cf6:	e883 0007 	stmia.w	r3, {r0, r1, r2}
        .otype = GPIO_OTYPE_PP,
        .speed = GPIO_SPEED_LOW,
        .pupd = GPIO_PUPD_NONE,
        .af = 0
    };
    hal_gpio_init(&led);
 8001cfa:	463b      	mov	r3, r7
 8001cfc:	4618      	mov	r0, r3
 8001cfe:	f7ff ff0d 	bl	8001b1c <hal_gpio_init>
}
 8001d02:	bf00      	nop
 8001d04:	3730      	adds	r7, #48	@ 0x30
 8001d06:	46bd      	mov	sp, r7
 8001d08:	bd80      	pop	{r7, pc}
 8001d0a:	bf00      	nop
 8001d0c:	08002128 	.word	0x08002128
 8001d10:	08002134 	.word	0x08002134
 8001d14:	08002140 	.word	0x08002140
 8001d18:	0800214c 	.word	0x0800214c

08001d1c <heartbeat_callback>:

/*---------------------------------------------------------------------------*/
/* Timer Callback */
/*---------------------------------------------------------------------------*/

static void heartbeat_callback(void *arg) {
 8001d1c:	b580      	push	{r7, lr}
 8001d1e:	b082      	sub	sp, #8
 8001d20:	af00      	add	r7, sp, #0
 8001d22:	6078      	str	r0, [r7, #4]
    (void)arg;

    /* Toggle LED */
    hal_gpio_toggle(GPIOA, 5);
 8001d24:	2105      	movs	r1, #5
 8001d26:	4803      	ldr	r0, [pc, #12]	@ (8001d34 <heartbeat_callback+0x18>)
 8001d28:	f7ff ffaa 	bl	8001c80 <hal_gpio_toggle>
}
 8001d2c:	bf00      	nop
 8001d2e:	3708      	adds	r7, #8
 8001d30:	46bd      	mov	sp, r7
 8001d32:	bd80      	pop	{r7, pc}
 8001d34:	40020000 	.word	0x40020000

08001d38 <task1_fn>:

/*---------------------------------------------------------------------------*/
/* Task 1 - High Priority Fast Task (5ms period) */
/*---------------------------------------------------------------------------*/

static void task1_fn(void *arg) {
 8001d38:	b580      	push	{r7, lr}
 8001d3a:	b086      	sub	sp, #24
 8001d3c:	af00      	add	r7, sp, #0
 8001d3e:	6078      	str	r0, [r7, #4]
    (void)arg;

    uint32_t last_wake = rtos_now();
 8001d40:	f7fe fee4 	bl	8000b0c <rtos_now>
 8001d44:	6178      	str	r0, [r7, #20]
    uint32_t msg;

    hal_printf("[T1] Started (prio=1)\n");
 8001d46:	4819      	ldr	r0, [pc, #100]	@ (8001dac <task1_fn+0x74>)
 8001d48:	f7ff fdec 	bl	8001924 <hal_printf>

    while (1) {
        task1_count++;
 8001d4c:	4b18      	ldr	r3, [pc, #96]	@ (8001db0 <task1_fn+0x78>)
 8001d4e:	681b      	ldr	r3, [r3, #0]
 8001d50:	3301      	adds	r3, #1
 8001d52:	4a17      	ldr	r2, [pc, #92]	@ (8001db0 <task1_fn+0x78>)
 8001d54:	6013      	str	r3, [r2, #0]

        /* Periodic work */
        uint32_t tick = rtos_now();
 8001d56:	f7fe fed9 	bl	8000b0c <rtos_now>
 8001d5a:	6138      	str	r0, [r7, #16]
        int32_t jitter = (int32_t)(tick - last_wake) - 5;
 8001d5c:	693a      	ldr	r2, [r7, #16]
 8001d5e:	697b      	ldr	r3, [r7, #20]
 8001d60:	1ad3      	subs	r3, r2, r3
 8001d62:	3b05      	subs	r3, #5
 8001d64:	60fb      	str	r3, [r7, #12]

        /* Send tick to queue for T3 */
        msg = tick;
 8001d66:	693b      	ldr	r3, [r7, #16]
 8001d68:	60bb      	str	r3, [r7, #8]
        rtos_queue_send(&msg_queue, &msg, RTOS_NO_WAIT);
 8001d6a:	f107 0308 	add.w	r3, r7, #8
 8001d6e:	2200      	movs	r2, #0
 8001d70:	4619      	mov	r1, r3
 8001d72:	4810      	ldr	r0, [pc, #64]	@ (8001db4 <task1_fn+0x7c>)
 8001d74:	f7ff f9f0 	bl	8001158 <rtos_queue_send>

        /* Print every 200 iterations (1 second) */
        if (task1_count % 200 == 0) {
 8001d78:	4b0d      	ldr	r3, [pc, #52]	@ (8001db0 <task1_fn+0x78>)
 8001d7a:	681a      	ldr	r2, [r3, #0]
 8001d7c:	4b0e      	ldr	r3, [pc, #56]	@ (8001db8 <task1_fn+0x80>)
 8001d7e:	fba3 1302 	umull	r1, r3, r3, r2
 8001d82:	099b      	lsrs	r3, r3, #6
 8001d84:	21c8      	movs	r1, #200	@ 0xc8
 8001d86:	fb01 f303 	mul.w	r3, r1, r3
 8001d8a:	1ad3      	subs	r3, r2, r3
 8001d8c:	2b00      	cmp	r3, #0
 8001d8e:	d106      	bne.n	8001d9e <task1_fn+0x66>
            hal_printf("[T1] tick=%u, runs=%u, jitter=%d\n",
 8001d90:	4b07      	ldr	r3, [pc, #28]	@ (8001db0 <task1_fn+0x78>)
 8001d92:	681a      	ldr	r2, [r3, #0]
 8001d94:	68fb      	ldr	r3, [r7, #12]
 8001d96:	6939      	ldr	r1, [r7, #16]
 8001d98:	4808      	ldr	r0, [pc, #32]	@ (8001dbc <task1_fn+0x84>)
 8001d9a:	f7ff fdc3 	bl	8001924 <hal_printf>
                       tick, task1_count, jitter);
        }

        /* Wait until next period */
        last_wake += 5;
 8001d9e:	697b      	ldr	r3, [r7, #20]
 8001da0:	3305      	adds	r3, #5
 8001da2:	617b      	str	r3, [r7, #20]
        rtos_delay_until(last_wake);
 8001da4:	6978      	ldr	r0, [r7, #20]
 8001da6:	f7fe ff6b 	bl	8000c80 <rtos_delay_until>
    while (1) {
 8001daa:	e7cf      	b.n	8001d4c <task1_fn+0x14>
 8001dac:	08002158 	.word	0x08002158
 8001db0:	20000fc4 	.word	0x20000fc4
 8001db4:	20000f84 	.word	0x20000f84
 8001db8:	51eb851f 	.word	0x51eb851f
 8001dbc:	08002170 	.word	0x08002170

08001dc0 <task2_fn>:

/*---------------------------------------------------------------------------*/
/* Task 2 - Medium Priority Slow Task (20ms period) */
/*---------------------------------------------------------------------------*/

static void task2_fn(void *arg) {
 8001dc0:	b580      	push	{r7, lr}
 8001dc2:	b084      	sub	sp, #16
 8001dc4:	af00      	add	r7, sp, #0
 8001dc6:	6078      	str	r0, [r7, #4]
    (void)arg;

    uint32_t last_wake = rtos_now();
 8001dc8:	f7fe fea0 	bl	8000b0c <rtos_now>
 8001dcc:	60f8      	str	r0, [r7, #12]

    hal_printf("[T2] Started (prio=2)\n");
 8001dce:	4816      	ldr	r0, [pc, #88]	@ (8001e28 <task2_fn+0x68>)
 8001dd0:	f7ff fda8 	bl	8001924 <hal_printf>

    while (1) {
        task2_count++;
 8001dd4:	4b15      	ldr	r3, [pc, #84]	@ (8001e2c <task2_fn+0x6c>)
 8001dd6:	681b      	ldr	r3, [r3, #0]
 8001dd8:	3301      	adds	r3, #1
 8001dda:	4a14      	ldr	r2, [pc, #80]	@ (8001e2c <task2_fn+0x6c>)
 8001ddc:	6013      	str	r3, [r2, #0]

        /* Acquire shared mutex - demonstrates priority inheritance */
        rtos_mutex_lock(&shared_mutex, RTOS_WAIT_FOREVER);
 8001dde:	f04f 31ff 	mov.w	r1, #4294967295	@ 0xffffffff
 8001de2:	4813      	ldr	r0, [pc, #76]	@ (8001e30 <task2_fn+0x70>)
 8001de4:	f7ff f864 	bl	8000eb0 <rtos_mutex_lock>

        /* Simulate some work while holding mutex */
        uint32_t tick = rtos_now();
 8001de8:	f7fe fe90 	bl	8000b0c <rtos_now>
 8001dec:	60b8      	str	r0, [r7, #8]

        /* Print every 50 iterations (1 second) */
        if (task2_count % 50 == 0) {
 8001dee:	4b0f      	ldr	r3, [pc, #60]	@ (8001e2c <task2_fn+0x6c>)
 8001df0:	681a      	ldr	r2, [r3, #0]
 8001df2:	4b10      	ldr	r3, [pc, #64]	@ (8001e34 <task2_fn+0x74>)
 8001df4:	fba3 1302 	umull	r1, r3, r3, r2
 8001df8:	091b      	lsrs	r3, r3, #4
 8001dfa:	2132      	movs	r1, #50	@ 0x32
 8001dfc:	fb01 f303 	mul.w	r3, r1, r3
 8001e00:	1ad3      	subs	r3, r2, r3
 8001e02:	2b00      	cmp	r3, #0
 8001e04:	d106      	bne.n	8001e14 <task2_fn+0x54>
            hal_printf("[T2] tick=%u, runs=%u\n", tick, task2_count);
 8001e06:	4b09      	ldr	r3, [pc, #36]	@ (8001e2c <task2_fn+0x6c>)
 8001e08:	681b      	ldr	r3, [r3, #0]
 8001e0a:	461a      	mov	r2, r3
 8001e0c:	68b9      	ldr	r1, [r7, #8]
 8001e0e:	480a      	ldr	r0, [pc, #40]	@ (8001e38 <task2_fn+0x78>)
 8001e10:	f7ff fd88 	bl	8001924 <hal_printf>
        }

        rtos_mutex_unlock(&shared_mutex);
 8001e14:	4806      	ldr	r0, [pc, #24]	@ (8001e30 <task2_fn+0x70>)
 8001e16:	f7ff f8d7 	bl	8000fc8 <rtos_mutex_unlock>

        /* Wait until next period */
        last_wake += 20;
 8001e1a:	68fb      	ldr	r3, [r7, #12]
 8001e1c:	3314      	adds	r3, #20
 8001e1e:	60fb      	str	r3, [r7, #12]
        rtos_delay_until(last_wake);
 8001e20:	68f8      	ldr	r0, [r7, #12]
 8001e22:	f7fe ff2d 	bl	8000c80 <rtos_delay_until>
    while (1) {
 8001e26:	e7d5      	b.n	8001dd4 <task2_fn+0x14>
 8001e28:	08002194 	.word	0x08002194
 8001e2c:	20000fc8 	.word	0x20000fc8
 8001e30:	20000f48 	.word	0x20000f48
 8001e34:	51eb851f 	.word	0x51eb851f
 8001e38:	080021ac 	.word	0x080021ac

08001e3c <task3_fn>:

/*---------------------------------------------------------------------------*/
/* Task 3 - Low Priority Background Logger */
/*---------------------------------------------------------------------------*/

static void task3_fn(void *arg) {
 8001e3c:	b590      	push	{r4, r7, lr}
 8001e3e:	b087      	sub	sp, #28
 8001e40:	af00      	add	r7, sp, #0
 8001e42:	6078      	str	r0, [r7, #4]
    (void)arg;

    uint32_t msg;
    uint32_t last_report = 0;
 8001e44:	2300      	movs	r3, #0
 8001e46:	617b      	str	r3, [r7, #20]

    hal_printf("[T3] Started (prio=3)\n");
 8001e48:	4815      	ldr	r0, [pc, #84]	@ (8001ea0 <task3_fn+0x64>)
 8001e4a:	f7ff fd6b 	bl	8001924 <hal_printf>

    while (1) {
        task3_count++;
 8001e4e:	4b15      	ldr	r3, [pc, #84]	@ (8001ea4 <task3_fn+0x68>)
 8001e50:	681b      	ldr	r3, [r3, #0]
 8001e52:	3301      	adds	r3, #1
 8001e54:	4a13      	ldr	r2, [pc, #76]	@ (8001ea4 <task3_fn+0x68>)
 8001e56:	6013      	str	r3, [r2, #0]

        /* Wait for message from T1 */
        if (rtos_queue_recv(&msg_queue, &msg, 100) == RTOS_OK) {
 8001e58:	f107 030c 	add.w	r3, r7, #12
 8001e5c:	2264      	movs	r2, #100	@ 0x64
 8001e5e:	4619      	mov	r1, r3
 8001e60:	4811      	ldr	r0, [pc, #68]	@ (8001ea8 <task3_fn+0x6c>)
 8001e62:	f7ff fa41 	bl	80012e8 <rtos_queue_recv>
            /* Process message - just count them */
        }

        /* Print statistics every second */
        uint32_t now = rtos_now();
 8001e66:	f7fe fe51 	bl	8000b0c <rtos_now>
 8001e6a:	6138      	str	r0, [r7, #16]
        if (now - last_report >= 1000) {
 8001e6c:	693a      	ldr	r2, [r7, #16]
 8001e6e:	697b      	ldr	r3, [r7, #20]
 8001e70:	1ad3      	subs	r3, r2, r3
 8001e72:	f5b3 7f7a 	cmp.w	r3, #1000	@ 0x3e8
 8001e76:	d3ea      	bcc.n	8001e4e <task3_fn+0x12>
            last_report = now;
 8001e78:	693b      	ldr	r3, [r7, #16]
 8001e7a:	617b      	str	r3, [r7, #20]

#if RTOS_ENABLE_STATS
            hal_printf("[STATS] tick=%u, ctx_sw=%u, idle=%u%%\n",
 8001e7c:	f7fe fe50 	bl	8000b20 <rtos_stats_context_switches>
 8001e80:	4604      	mov	r4, r0
                       now,
                       rtos_stats_context_switches(),
                       (rtos_stats_idle_ticks() * 100) / now);
 8001e82:	f7fe fe57 	bl	8000b34 <rtos_stats_idle_ticks>
 8001e86:	4603      	mov	r3, r0
 8001e88:	2264      	movs	r2, #100	@ 0x64
 8001e8a:	fb03 f202 	mul.w	r2, r3, r2
            hal_printf("[STATS] tick=%u, ctx_sw=%u, idle=%u%%\n",
 8001e8e:	693b      	ldr	r3, [r7, #16]
 8001e90:	fbb2 f3f3 	udiv	r3, r2, r3
 8001e94:	4622      	mov	r2, r4
 8001e96:	6939      	ldr	r1, [r7, #16]
 8001e98:	4804      	ldr	r0, [pc, #16]	@ (8001eac <task3_fn+0x70>)
 8001e9a:	f7ff fd43 	bl	8001924 <hal_printf>
    while (1) {
 8001e9e:	e7d6      	b.n	8001e4e <task3_fn+0x12>
 8001ea0:	080021c4 	.word	0x080021c4
 8001ea4:	20000fcc 	.word	0x20000fcc
 8001ea8:	20000f84 	.word	0x20000f84
 8001eac:	080021dc 	.word	0x080021dc

08001eb0 <main>:

/*---------------------------------------------------------------------------*/
/* Main Entry Point */
/*---------------------------------------------------------------------------*/

int main(void) {
 8001eb0:	b580      	push	{r7, lr}
 8001eb2:	b084      	sub	sp, #16
 8001eb4:	af04      	add	r7, sp, #16
    /* Initialize HAL (clocks, GPIO, UART) */
    hal_system_init();
 8001eb6:	f7ff fef7 	bl	8001ca8 <hal_system_init>

    hal_printf("\n");
 8001eba:	4833      	ldr	r0, [pc, #204]	@ (8001f88 <main+0xd8>)
 8001ebc:	f7ff fd32 	bl	8001924 <hal_printf>
    hal_printf("========================================\n");
 8001ec0:	4832      	ldr	r0, [pc, #200]	@ (8001f8c <main+0xdc>)
 8001ec2:	f7ff fd2f 	bl	8001924 <hal_printf>
    hal_printf("  Custom RTOS for ARM Cortex-M4\n");
 8001ec6:	4832      	ldr	r0, [pc, #200]	@ (8001f90 <main+0xe0>)
 8001ec8:	f7ff fd2c 	bl	8001924 <hal_printf>
    hal_printf("  Running on QEMU netduinoplus2\n");
 8001ecc:	4831      	ldr	r0, [pc, #196]	@ (8001f94 <main+0xe4>)
 8001ece:	f7ff fd29 	bl	8001924 <hal_printf>
    hal_printf("========================================\n");
 8001ed2:	482e      	ldr	r0, [pc, #184]	@ (8001f8c <main+0xdc>)
 8001ed4:	f7ff fd26 	bl	8001924 <hal_printf>
    hal_printf("[BOOT] RTOS starting, tick rate: %d Hz\n", RTOS_TICK_RATE_HZ);
 8001ed8:	f44f 717a 	mov.w	r1, #1000	@ 0x3e8
 8001edc:	482e      	ldr	r0, [pc, #184]	@ (8001f98 <main+0xe8>)
 8001ede:	f7ff fd21 	bl	8001924 <hal_printf>

    /* Initialize RTOS */
    rtos_init();
 8001ee2:	f7fe fdb3 	bl	8000a4c <rtos_init>

    /* Initialize synchronization objects */
    rtos_mutex_init(&shared_mutex);
 8001ee6:	482d      	ldr	r0, [pc, #180]	@ (8001f9c <main+0xec>)
 8001ee8:	f7fe ffc4 	bl	8000e74 <rtos_mutex_init>
    rtos_sem_init(&sync_sem, 0);
 8001eec:	2100      	movs	r1, #0
 8001eee:	482c      	ldr	r0, [pc, #176]	@ (8001fa0 <main+0xf0>)
 8001ef0:	f7fe ffa2 	bl	8000e38 <rtos_sem_init>
    rtos_queue_init(&msg_queue, queue_buffer, MSG_SIZE, QUEUE_SIZE);
 8001ef4:	2308      	movs	r3, #8
 8001ef6:	2204      	movs	r2, #4
 8001ef8:	492a      	ldr	r1, [pc, #168]	@ (8001fa4 <main+0xf4>)
 8001efa:	482b      	ldr	r0, [pc, #172]	@ (8001fa8 <main+0xf8>)
 8001efc:	f7ff f8f4 	bl	80010e8 <rtos_queue_init>

    /* Initialize and start heartbeat timer (500ms period) */
    rtos_timer_init(&heartbeat_timer);
 8001f00:	482a      	ldr	r0, [pc, #168]	@ (8001fac <main+0xfc>)
 8001f02:	f7ff fab5 	bl	8001470 <rtos_timer_init>
    rtos_timer_start(&heartbeat_timer, 500, heartbeat_callback, NULL);
 8001f06:	2300      	movs	r3, #0
 8001f08:	4a29      	ldr	r2, [pc, #164]	@ (8001fb0 <main+0x100>)
 8001f0a:	f44f 71fa 	mov.w	r1, #500	@ 0x1f4
 8001f0e:	4827      	ldr	r0, [pc, #156]	@ (8001fac <main+0xfc>)
 8001f10:	f7ff fb4a 	bl	80015a8 <rtos_timer_start>

    /* Create demo tasks */
    hal_printf("[TASK] Creating T1 (prio=1, period=5ms)\n");
 8001f14:	4827      	ldr	r0, [pc, #156]	@ (8001fb4 <main+0x104>)
 8001f16:	f7ff fd05 	bl	8001924 <hal_printf>
    rtos_task_create(task1_fn, "T1", 1,
 8001f1a:	2300      	movs	r3, #0
 8001f1c:	9302      	str	r3, [sp, #8]
 8001f1e:	4b26      	ldr	r3, [pc, #152]	@ (8001fb8 <main+0x108>)
 8001f20:	9301      	str	r3, [sp, #4]
 8001f22:	f44f 7380 	mov.w	r3, #256	@ 0x100
 8001f26:	9300      	str	r3, [sp, #0]
 8001f28:	4b24      	ldr	r3, [pc, #144]	@ (8001fbc <main+0x10c>)
 8001f2a:	2201      	movs	r2, #1
 8001f2c:	4924      	ldr	r1, [pc, #144]	@ (8001fc0 <main+0x110>)
 8001f2e:	4825      	ldr	r0, [pc, #148]	@ (8001fc4 <main+0x114>)
 8001f30:	f7fe fe0a 	bl	8000b48 <rtos_task_create>
                     task1_stack, TASK_STACK_SIZE,
                     &task1_tcb, NULL);

    hal_printf("[TASK] Creating T2 (prio=2, period=20ms)\n");
 8001f34:	4824      	ldr	r0, [pc, #144]	@ (8001fc8 <main+0x118>)
 8001f36:	f7ff fcf5 	bl	8001924 <hal_printf>
    rtos_task_create(task2_fn, "T2", 2,
 8001f3a:	2300      	movs	r3, #0
 8001f3c:	9302      	str	r3, [sp, #8]
 8001f3e:	4b23      	ldr	r3, [pc, #140]	@ (8001fcc <main+0x11c>)
 8001f40:	9301      	str	r3, [sp, #4]
 8001f42:	f44f 7380 	mov.w	r3, #256	@ 0x100
 8001f46:	9300      	str	r3, [sp, #0]
 8001f48:	4b21      	ldr	r3, [pc, #132]	@ (8001fd0 <main+0x120>)
 8001f4a:	2202      	movs	r2, #2
 8001f4c:	4921      	ldr	r1, [pc, #132]	@ (8001fd4 <main+0x124>)
 8001f4e:	4822      	ldr	r0, [pc, #136]	@ (8001fd8 <main+0x128>)
 8001f50:	f7fe fdfa 	bl	8000b48 <rtos_task_create>
                     task2_stack, TASK_STACK_SIZE,
                     &task2_tcb, NULL);

    hal_printf("[TASK] Creating T3 (prio=3, background)\n");
 8001f54:	4821      	ldr	r0, [pc, #132]	@ (8001fdc <main+0x12c>)
 8001f56:	f7ff fce5 	bl	8001924 <hal_printf>
    rtos_task_create(task3_fn, "T3", 3,
 8001f5a:	2300      	movs	r3, #0
 8001f5c:	9302      	str	r3, [sp, #8]
 8001f5e:	4b20      	ldr	r3, [pc, #128]	@ (8001fe0 <main+0x130>)
 8001f60:	9301      	str	r3, [sp, #4]
 8001f62:	f44f 7380 	mov.w	r3, #256	@ 0x100
 8001f66:	9300      	str	r3, [sp, #0]
 8001f68:	4b1e      	ldr	r3, [pc, #120]	@ (8001fe4 <main+0x134>)
 8001f6a:	2203      	movs	r2, #3
 8001f6c:	491e      	ldr	r1, [pc, #120]	@ (8001fe8 <main+0x138>)
 8001f6e:	481f      	ldr	r0, [pc, #124]	@ (8001fec <main+0x13c>)
 8001f70:	f7fe fdea 	bl	8000b48 <rtos_task_create>
                     task3_stack, TASK_STACK_SIZE,
                     &task3_tcb, NULL);

    hal_printf("[SCHED] Starting scheduler\n");
 8001f74:	481e      	ldr	r0, [pc, #120]	@ (8001ff0 <main+0x140>)
 8001f76:	f7ff fcd5 	bl	8001924 <hal_printf>
    hal_printf("----------------------------------------\n");
 8001f7a:	481e      	ldr	r0, [pc, #120]	@ (8001ff4 <main+0x144>)
 8001f7c:	f7ff fcd2 	bl	8001924 <hal_printf>

    /* Start the RTOS scheduler - this never returns */
    rtos_start();
 8001f80:	f7fe fd9e 	bl	8000ac0 <rtos_start>

    /* Should never reach here */
    while (1);
 8001f84:	bf00      	nop
 8001f86:	e7fd      	b.n	8001f84 <main+0xd4>
 8001f88:	08002204 	.word	0x08002204
 8001f8c:	08002208 	.word	0x08002208
 8001f90:	08002234 	.word	0x08002234
 8001f94:	08002258 	.word	0x08002258
 8001f98:	0800227c 	.word	0x0800227c
 8001f9c:	20000f48 	.word	0x20000f48
 8001fa0:	20000f58 	.word	0x20000f58
 8001fa4:	20000f64 	.word	0x20000f64
 8001fa8:	20000f84 	.word	0x20000f84
 8001fac:	20000fac 	.word	0x20000fac
 8001fb0:	08001d1d 	.word	0x08001d1d
 8001fb4:	080022a4 	.word	0x080022a4
 8001fb8:	20000688 	.word	0x20000688
 8001fbc:	20000288 	.word	0x20000288
 8001fc0:	080022d0 	.word	0x080022d0
 8001fc4:	08001d39 	.word	0x08001d39
 8001fc8:	080022d4 	.word	0x080022d4
 8001fcc:	20000ac8 	.word	0x20000ac8
 8001fd0:	200006c8 	.word	0x200006c8
 8001fd4:	08002300 	.word	0x08002300
 8001fd8:	08001dc1 	.word	0x08001dc1
 8001fdc:	08002304 	.word	0x08002304
 8001fe0:	20000f08 	.word	0x20000f08
 8001fe4:	20000b08 	.word	0x20000b08
 8001fe8:	08002330 	.word	0x08002330
 8001fec:	08001e3d 	.word	0x08001e3d
 8001ff0:	08002334 	.word	0x08002334
 8001ff4:	08002350 	.word	0x08002350

08001ff8 <memset>:
 8001ff8:	b530      	push	{r4, r5, lr}
 8001ffa:	0784      	lsls	r4, r0, #30
 8001ffc:	4686      	mov	lr, r0
 8001ffe:	4603      	mov	r3, r0
 8002000:	d006      	beq.n	8002010 <memset+0x18>
 8002002:	b3a2      	cbz	r2, 800206e <memset+0x76>
 8002004:	f803 1b01 	strb.w	r1, [r3], #1
 8002008:	0798      	lsls	r0, r3, #30
 800200a:	f102 32ff 	add.w	r2, r2, #4294967295	@ 0xffffffff
 800200e:	d1f8      	bne.n	8002002 <memset+0xa>
 8002010:	2a03      	cmp	r2, #3
 8002012:	d926      	bls.n	8002062 <memset+0x6a>
 8002014:	fa5f fc81 	uxtb.w	ip, r1
 8002018:	eb0c 2c0c 	add.w	ip, ip, ip, lsl #8
 800201c:	2a0f      	cmp	r2, #15
 800201e:	eb0c 400c 	add.w	r0, ip, ip, lsl #16
 8002022:	d92a      	bls.n	800207a <memset+0x82>
 8002024:	f022 0c0f 	bic.w	ip, r2, #15
 8002028:	449c      	add	ip, r3
 800202a:	e9c3 0000 	strd	r0, r0, [r3]
 800202e:	e9c3 0002 	strd	r0, r0, [r3, #8]
 8002032:	3310      	adds	r3, #16
 8002034:	4563      	cmp	r3, ip
 8002036:	d1f8      	bne.n	800202a <memset+0x32>
 8002038:	f012 0f0c 	tst.w	r2, #12
 800203c:	f002 040f 	and.w	r4, r2, #15
 8002040:	d017      	beq.n	8002072 <memset+0x7a>
 8002042:	ea4f 0c94 	mov.w	ip, r4, lsr #2
 8002046:	f10c 35ff 	add.w	r5, ip, #4294967295	@ 0xffffffff
 800204a:	461a      	mov	r2, r3
 800204c:	eb03 0c8c 	add.w	ip, r3, ip, lsl #2
 8002050:	f842 0b04 	str.w	r0, [r2], #4
 8002054:	4562      	cmp	r2, ip
 8002056:	d1fb      	bne.n	8002050 <memset+0x58>
 8002058:	3304      	adds	r3, #4
 800205a:	f004 0203 	and.w	r2, r4, #3
 800205e:	eb03 0385 	add.w	r3, r3, r5, lsl #2
 8002062:	b122      	cbz	r2, 800206e <memset+0x76>
 8002064:	441a      	add	r2, r3
 8002066:	f803 1b01 	strb.w	r1, [r3], #1
 800206a:	429a      	cmp	r2, r3
 800206c:	d1fb      	bne.n	8002066 <memset+0x6e>
 800206e:	4670      	mov	r0, lr
 8002070:	bd30      	pop	{r4, r5, pc}
 8002072:	4622      	mov	r2, r4
 8002074:	2a00      	cmp	r2, #0
 8002076:	d1f5      	bne.n	8002064 <memset+0x6c>
 8002078:	e7f9      	b.n	800206e <memset+0x76>
 800207a:	4614      	mov	r4, r2
 800207c:	e7e1      	b.n	8002042 <memset+0x4a>
 800207e:	bf00      	nop

08002080 <strncpy>:
 8002080:	b510      	push	{r4, lr}
 8002082:	4604      	mov	r4, r0
 8002084:	4308      	orrs	r0, r1
 8002086:	0783      	lsls	r3, r0, #30
 8002088:	d101      	bne.n	800208e <strncpy+0xe>
 800208a:	2a03      	cmp	r2, #3
 800208c:	d819      	bhi.n	80020c2 <strncpy+0x42>
 800208e:	46a4      	mov	ip, r4
 8002090:	f101 3eff 	add.w	lr, r1, #4294967295	@ 0xffffffff
 8002094:	e007      	b.n	80020a6 <strncpy+0x26>
 8002096:	f81e 1f01 	ldrb.w	r1, [lr, #1]!
 800209a:	f803 1b01 	strb.w	r1, [r3], #1
 800209e:	1e50      	subs	r0, r2, #1
 80020a0:	b131      	cbz	r1, 80020b0 <strncpy+0x30>
 80020a2:	469c      	mov	ip, r3
 80020a4:	4602      	mov	r2, r0
 80020a6:	4663      	mov	r3, ip
 80020a8:	2a00      	cmp	r2, #0
 80020aa:	d1f4      	bne.n	8002096 <strncpy+0x16>
 80020ac:	4620      	mov	r0, r4
 80020ae:	bd10      	pop	{r4, pc}
 80020b0:	4494      	add	ip, r2
 80020b2:	2800      	cmp	r0, #0
 80020b4:	d0fa      	beq.n	80020ac <strncpy+0x2c>
 80020b6:	f803 1b01 	strb.w	r1, [r3], #1
 80020ba:	4563      	cmp	r3, ip
 80020bc:	d1fb      	bne.n	80020b6 <strncpy+0x36>
 80020be:	4620      	mov	r0, r4
 80020c0:	bd10      	pop	{r4, pc}
 80020c2:	460b      	mov	r3, r1
 80020c4:	46a4      	mov	ip, r4
 80020c6:	6818      	ldr	r0, [r3, #0]
 80020c8:	4619      	mov	r1, r3
 80020ca:	f1a0 3301 	sub.w	r3, r0, #16843009	@ 0x1010101
 80020ce:	ea23 0300 	bic.w	r3, r3, r0
 80020d2:	f013 3f80 	tst.w	r3, #2155905152	@ 0x80808080
 80020d6:	f101 0304 	add.w	r3, r1, #4
 80020da:	d1d9      	bne.n	8002090 <strncpy+0x10>
 80020dc:	3a04      	subs	r2, #4
 80020de:	2a03      	cmp	r2, #3
 80020e0:	f84c 0b04 	str.w	r0, [ip], #4
 80020e4:	d8ef      	bhi.n	80020c6 <strncpy+0x46>
 80020e6:	4619      	mov	r1, r3
 80020e8:	e7d2      	b.n	8002090 <strncpy+0x10>
 80020ea:	bf00      	nop
